---
triple:          'arm64-apple-darwin'
binary-path:     ws
relocations:
  - { offsetInCU: 0x3E, offset: 0x3E, size: 0x8, addend: 0x0, symName: __ZN4sdds13CustomerOrder12m_widthFieldE, symObjAddr: 0x44D0, symBinAddr: 0x100018000, symSize: 0x0 }
  - { offsetInCU: 0x5C20, offset: 0x5C20, size: 0x8, addend: 0x0, symName: __ZNSt3__124__put_character_sequenceB7v160006IcNS_11char_traitsIcEEEERNS_13basic_ostreamIT_T0_EES7_PKS4_m, symObjAddr: 0x395C, symBinAddr: 0x10000630C, symSize: 0x1EC }
  - { offsetInCU: 0x6ADA, offset: 0x6ADA, size: 0x8, addend: 0x0, symName: __ZNSt3__1eqB7v160006INS_9allocatorIcEEEEbRKNS_12basic_stringIcNS_11char_traitsIcEET_EES9_, symObjAddr: 0xA58, symBinAddr: 0x100003408, symSize: 0x148 }
  - { offsetInCU: 0x6B4D, offset: 0x6B4D, size: 0x8, addend: 0x0, symName: __ZNSt3__1lsB7v160006INS_11char_traitsIcEEEERNS_13basic_ostreamIcT_EES6_PKc, symObjAddr: 0xD2C, symBinAddr: 0x1000036DC, symSize: 0x48 }
  - { offsetInCU: 0x6B93, offset: 0x6B93, size: 0x8, addend: 0x0, symName: __ZNSt3__1lsB7v160006IcNS_11char_traitsIcEENS_9allocatorIcEEEERNS_13basic_ostreamIT_T0_EES9_RKNS_12basic_stringIS6_S7_T1_EE, symObjAddr: 0xD74, symBinAddr: 0x100003724, symSize: 0x4C }
  - { offsetInCU: 0x6BEB, offset: 0x6BEB, size: 0x8, addend: 0x0, symName: __ZNSt3__14endlB7v160006IcNS_11char_traitsIcEEEERNS_13basic_ostreamIT_T0_EES7_, symObjAddr: 0xFA8, symBinAddr: 0x100003958, symSize: 0x58 }
  - { offsetInCU: 0x6C2B, offset: 0x6C2B, size: 0x8, addend: 0x0, symName: __ZNSt3__1lsB7v160006INS_11char_traitsIcEEEERNS_13basic_ostreamIcT_EES6_RKNS_8__iom_t4IcEE, symObjAddr: 0x1000, symBinAddr: 0x1000039B0, symSize: 0x40 }
  - { offsetInCU: 0x6C6E, offset: 0x6C6E, size: 0x8, addend: 0x0, symName: __ZNSt3__1lsB7v160006IcNS_11char_traitsIcEEEERNS_13basic_ostreamIT_T0_EES7_RKNS_8__iom_t6E, symObjAddr: 0x1040, symBinAddr: 0x1000039F0, symSize: 0x40 }
  - { offsetInCU: 0x6CBD, offset: 0x6CBD, size: 0x8, addend: 0x0, symName: __ZNSt3__14setwB7v160006Ei, symObjAddr: 0x1080, symBinAddr: 0x100003A30, symSize: 0x2C }
  - { offsetInCU: 0x6CEB, offset: 0x6CEB, size: 0x8, addend: 0x0, symName: __ZNSt3__17setfillB7v160006IcEENS_8__iom_t4IT_EES2_, symObjAddr: 0x10AC, symBinAddr: 0x100003A5C, symSize: 0x2C }
  - { offsetInCU: 0x6D20, offset: 0x6D20, size: 0x8, addend: 0x0, symName: __ZNSt3__119__debug_db_insert_cB7v160006INS_12basic_stringIcNS_11char_traitsIcEENS_9allocatorIcEEEEEEvPT_, symObjAddr: 0x1268, symBinAddr: 0x100003C18, symSize: 0x10 }
  - { offsetInCU: 0x6D51, offset: 0x6D51, size: 0x8, addend: 0x0, symName: __ZNSt3__119__debug_db_insert_cB7v160006INS_6vectorINS_12basic_stringIcNS_11char_traitsIcEENS_9allocatorIcEEEENS5_IS7_EEEEEEvPT_, symObjAddr: 0x1440, symBinAddr: 0x100003DF0, symSize: 0x10 }
  - { offsetInCU: 0x6D82, offset: 0x6D82, size: 0x8, addend: 0x0, symName: __ZNSt3__118__debug_db_erase_cB7v160006INS_6vectorINS_12basic_stringIcNS_11char_traitsIcEENS_9allocatorIcEEEENS5_IS7_EEEEEEvPT_, symObjAddr: 0x1720, symBinAddr: 0x1000040D0, symSize: 0x10 }
  - { offsetInCU: 0x6DB3, offset: 0x6DB3, size: 0x8, addend: 0x0, symName: __ZNSt3__112__to_addressB7v160006INS_12basic_stringIcNS_11char_traitsIcEENS_9allocatorIcEEEEEEPT_S8_, symObjAddr: 0x183C, symBinAddr: 0x1000041EC, symSize: 0x14 }
  - { offsetInCU: 0x6DE8, offset: 0x6DE8, size: 0x8, addend: 0x0, symName: __ZNSt3__119__libcpp_deallocateB7v160006EPvmm, symObjAddr: 0x1974, symBinAddr: 0x100004324, symSize: 0x60 }
  - { offsetInCU: 0x6E4D, offset: 0x6E4D, size: 0x8, addend: 0x0, symName: __ZNSt3__124__is_overaligned_for_newB7v160006Em, symObjAddr: 0x19D4, symBinAddr: 0x100004384, symSize: 0x20 }
  - { offsetInCU: 0x6E7B, offset: 0x6E7B, size: 0x8, addend: 0x0, symName: __ZNSt3__127__do_deallocate_handle_sizeB7v160006IJSt11align_val_tEEEvPvmDpT_, symObjAddr: 0x19F4, symBinAddr: 0x1000043A4, symSize: 0x30 }
  - { offsetInCU: 0x6ECE, offset: 0x6ECE, size: 0x8, addend: 0x0, symName: __ZNSt3__127__do_deallocate_handle_sizeB7v160006IJEEEvPvmDpT_, symObjAddr: 0x1A24, symBinAddr: 0x1000043D4, symSize: 0x28 }
  - { offsetInCU: 0x6F0C, offset: 0x6F0C, size: 0x8, addend: 0x0, symName: __ZNSt3__124__libcpp_operator_deleteB7v160006IJPvSt11align_val_tEEEvDpT_, symObjAddr: 0x1A4C, symBinAddr: 0x1000043FC, symSize: 0x2C }
  - { offsetInCU: 0x6F55, offset: 0x6F55, size: 0x8, addend: 0x0, symName: __ZNSt3__124__libcpp_operator_deleteB7v160006IJPvEEEvDpT_, symObjAddr: 0x1A78, symBinAddr: 0x100004428, symSize: 0x24 }
  - { offsetInCU: 0x6F8A, offset: 0x6F8A, size: 0x8, addend: 0x0, symName: __ZNSt3__115__debug_db_swapB7v160006INS_12basic_stringIcNS_11char_traitsIcEENS_9allocatorIcEEEEEEvPT_S8_, symObjAddr: 0x1F00, symBinAddr: 0x1000048B0, symSize: 0x14 }
  - { offsetInCU: 0x6FC9, offset: 0x6FC9, size: 0x8, addend: 0x0, symName: __ZNSt3__13maxB7v160006ImEERKT_S3_S3_, symObjAddr: 0x2224, symBinAddr: 0x100004BD4, symSize: 0x2C }
  - { offsetInCU: 0x700C, offset: 0x700C, size: 0x8, addend: 0x0, symName: __ZNSt3__13minB7v160006ImEERKT_S3_S3_, symObjAddr: 0x2250, symBinAddr: 0x100004C00, symSize: 0x2C }
  - { offsetInCU: 0x7239, offset: 0x7239, size: 0x8, addend: 0x0, symName: __ZNSt3__13minB7v160006ImNS_6__lessImmEEEERKT_S5_S5_T0_, symObjAddr: 0x22DC, symBinAddr: 0x100004C8C, symSize: 0x54 }
  - { offsetInCU: 0x72CE, offset: 0x72CE, size: 0x8, addend: 0x0, symName: __ZNSt3__120__throw_length_errorB7v160006EPKc, symObjAddr: 0x23BC, symBinAddr: 0x100004D6C, symSize: 0x64 }
  - { offsetInCU: 0x72F6, offset: 0x72F6, size: 0x8, addend: 0x0, symName: __ZNSt3__13maxB7v160006ImNS_6__lessImmEEEERKT_S5_S5_T0_, symObjAddr: 0x24A0, symBinAddr: 0x100004E50, symSize: 0x54 }
  - { offsetInCU: 0x7350, offset: 0x7350, size: 0x8, addend: 0x0, symName: __ZNSt3__119__allocate_at_leastB7v160006INS_9allocatorINS_12basic_stringIcNS_11char_traitsIcEENS1_IcEEEEEEEENS_19__allocation_resultINS_16allocator_traitsIT_E7pointerEEERSA_m, symObjAddr: 0x2610, symBinAddr: 0x100004FC0, symSize: 0x40 }
  - { offsetInCU: 0x7393, offset: 0x7393, size: 0x8, addend: 0x0, symName: __ZNSt3__117__libcpp_allocateB7v160006Emm, symObjAddr: 0x2798, symBinAddr: 0x100005148, symSize: 0x60 }
  - { offsetInCU: 0x73ED, offset: 0x73ED, size: 0x8, addend: 0x0, symName: __ZNSt3__121__libcpp_operator_newB7v160006IJmSt11align_val_tEEEPvDpT_, symObjAddr: 0x27F8, symBinAddr: 0x1000051A8, symSize: 0x2C }
  - { offsetInCU: 0x743A, offset: 0x743A, size: 0x8, addend: 0x0, symName: __ZNSt3__121__libcpp_operator_newB7v160006IJmEEEPvDpT_, symObjAddr: 0x2824, symBinAddr: 0x1000051D4, symSize: 0x24 }
  - { offsetInCU: 0x7473, offset: 0x7473, size: 0x8, addend: 0x0, symName: __ZNSt3__142__uninitialized_allocator_move_if_noexceptB7v160006INS_9allocatorINS_12basic_stringIcNS_11char_traitsIcEENS1_IcEEEEEENS_16reverse_iteratorIPS6_EESA_SA_EET2_RT_T0_T1_SB_, symObjAddr: 0x28AC, symBinAddr: 0x10000525C, symSize: 0x12C }
  - { offsetInCU: 0x7513, offset: 0x7513, size: 0x8, addend: 0x0, symName: __ZNSt3__14swapB7v160006IPNS_12basic_stringIcNS_11char_traitsIcEENS_9allocatorIcEEEEEENS_9enable_ifIXaasr21is_move_constructibleIT_EE5valuesr18is_move_assignableIS9_EE5valueEvE4typeERS9_SC_, symObjAddr: 0x2A24, symBinAddr: 0x1000053D4, symSize: 0x3C }
  - { offsetInCU: 0x7564, offset: 0x7564, size: 0x8, addend: 0x0, symName: __ZNSt3__125__debug_db_invalidate_allB7v160006INS_6vectorINS_12basic_stringIcNS_11char_traitsIcEENS_9allocatorIcEEEENS5_IS7_EEEEEEvPT_, symObjAddr: 0x2B28, symBinAddr: 0x1000054D8, symSize: 0x10 }
  - { offsetInCU: 0x7595, offset: 0x7595, size: 0x8, addend: 0x0, symName: __ZNSt3__122__make_exception_guardB7v160006INS_29_AllocatorDestroyRangeReverseINS_9allocatorINS_12basic_stringIcNS_11char_traitsIcEENS2_IcEEEEEENS_16reverse_iteratorIPS7_EEEEEENS_28__exception_guard_exceptionsIT_EESE_, symObjAddr: 0x2B38, symBinAddr: 0x1000054E8, symSize: 0x4C }
  - { offsetInCU: 0x75CB, offset: 0x75CB, size: 0x8, addend: 0x0, symName: __ZNSt3__1neB7v160006IPNS_12basic_stringIcNS_11char_traitsIcEENS_9allocatorIcEEEES7_EEbRKNS_16reverse_iteratorIT_EERKNS8_IT0_EE, symObjAddr: 0x2BC8, symBinAddr: 0x100005578, symSize: 0x48 }
  - { offsetInCU: 0x7617, offset: 0x7617, size: 0x8, addend: 0x0, symName: __ZNSt3__112__to_addressB7v160006INS_16reverse_iteratorIPNS_12basic_stringIcNS_11char_traitsIcEENS_9allocatorIcEEEEEEvEENS_5decayIDTclsr19__to_address_helperIT_EE6__callclsr3stdE7declvalIRKSB_EEEEE4typeESD_, symObjAddr: 0x2C10, symBinAddr: 0x1000055C0, symSize: 0x24 }
  - { offsetInCU: 0x7676, offset: 0x7676, size: 0x8, addend: 0x0, symName: __ZNSt3__119__allocator_destroyB7v160006INS_9allocatorINS_12basic_stringIcNS_11char_traitsIcEENS1_IcEEEEEENS_16reverse_iteratorINS8_IPS6_EEEESB_EEvRT_T0_T1_, symObjAddr: 0x2EC0, symBinAddr: 0x100005870, symSize: 0x70 }
  - { offsetInCU: 0x76DB, offset: 0x76DB, size: 0x8, addend: 0x0, symName: __ZNSt3__1neB7v160006INS_16reverse_iteratorIPNS_12basic_stringIcNS_11char_traitsIcEENS_9allocatorIcEEEEEES9_EEbRKNS1_IT_EERKNS1_IT0_EE, symObjAddr: 0x2F6C, symBinAddr: 0x10000591C, symSize: 0x60 }
  - { offsetInCU: 0x7727, offset: 0x7727, size: 0x8, addend: 0x0, symName: __ZNSt3__112__to_addressB7v160006INS_16reverse_iteratorINS1_IPNS_12basic_stringIcNS_11char_traitsIcEENS_9allocatorIcEEEEEEEEvEENS_5decayIDTclsr19__to_address_helperIT_EE6__callclsr3stdE7declvalIRKSC_EEEEE4typeESE_, symObjAddr: 0x2FCC, symBinAddr: 0x10000597C, symSize: 0x24 }
  - { offsetInCU: 0x7786, offset: 0x7786, size: 0x8, addend: 0x0, symName: __ZNSt3__118__constexpr_strlenB7v160006EPKc, symObjAddr: 0x33C8, symBinAddr: 0x100005D78, symSize: 0x24 }
  - { offsetInCU: 0x77E5, offset: 0x77E5, size: 0x8, addend: 0x0, symName: __ZNSt3__112__to_addressB7v160006IKcEEPT_S3_, symObjAddr: 0x385C, symBinAddr: 0x10000620C, symSize: 0x14 }
  - { offsetInCU: 0x784D, offset: 0x784D, size: 0x8, addend: 0x0, symName: __ZNSt3__118__constexpr_memcmpB7v160006IcEEiPKT_S3_m, symObjAddr: 0x3928, symBinAddr: 0x1000062D8, symSize: 0x34 }
  - { offsetInCU: 0x789E, offset: 0x789E, size: 0x8, addend: 0x0, symName: __ZNSt3__116__pad_and_outputB7v160006IcNS_11char_traitsIcEEEENS_19ostreambuf_iteratorIT_T0_EES6_PKS4_S8_S8_RNS_8ios_baseES4_, symObjAddr: 0x3B64, symBinAddr: 0x100006514, symSize: 0x240 }
  - { offsetInCU: 0x796D, offset: 0x796D, size: 0x8, addend: 0x0, symName: __ZNSt3__112__to_addressB7v160006IcEEPT_S2_, symObjAddr: 0x3FDC, symBinAddr: 0x10000698C, symSize: 0x14 }
  - { offsetInCU: 0x79A2, offset: 0x79A2, size: 0x8, addend: 0x0, symName: __ZNSt3__19use_facetB7v160006INS_5ctypeIcEEEERKT_RKNS_6localeE, symObjAddr: 0x4188, symBinAddr: 0x100006B38, symSize: 0x2C }
  - { offsetInCU: 0x80E1, offset: 0x80E1, size: 0x8, addend: 0x0, symName: __ZSt28__throw_bad_array_new_lengthB7v160006v, symObjAddr: 0x2764, symBinAddr: 0x100005114, symSize: 0x34 }
  - { offsetInCU: 0x86C5, offset: 0x86C5, size: 0x8, addend: 0x0, symName: __ZNSt3__16vectorINS_12basic_stringIcNS_11char_traitsIcEENS_9allocatorIcEEEENS4_IS6_EEE26__swap_out_circular_bufferERNS_14__split_bufferIS6_RS7_EE, symObjAddr: 0x2064, symBinAddr: 0x100004A14, symSize: 0x118 }
  - { offsetInCU: 0xA98E, offset: 0xA98E, size: 0x8, addend: 0x0, symName: __ZN4sdds13CustomerOrderC2ERKNSt3__112basic_stringIcNS1_11char_traitsIcEENS1_9allocatorIcEEEE, symObjAddr: 0x0, symBinAddr: 0x1000029B0, symSize: 0x2D8 }
  - { offsetInCU: 0xAA1C, offset: 0xAA1C, size: 0x8, addend: 0x0, symName: __ZNSt3__112basic_stringIcNS_11char_traitsIcEENS_9allocatorIcEEEC1B7v160006Ev, symObjAddr: 0x2D8, symBinAddr: 0x100002C88, symSize: 0x2C }
  - { offsetInCU: 0xAA5F, offset: 0xAA5F, size: 0x8, addend: 0x0, symName: __ZN4sdds9UtilitiesC1Ev, symObjAddr: 0x304, symBinAddr: 0x100002CB4, symSize: 0x2C }
  - { offsetInCU: 0xAA8B, offset: 0xAA8B, size: 0x8, addend: 0x0, symName: __ZNSt3__16vectorINS_12basic_stringIcNS_11char_traitsIcEENS_9allocatorIcEEEENS4_IS6_EEEC1B7v160006Ev, symObjAddr: 0x330, symBinAddr: 0x100002CE0, symSize: 0x2C }
  - { offsetInCU: 0xAAB5, offset: 0xAAB5, size: 0x8, addend: 0x0, symName: __ZNSt3__16vectorINS_12basic_stringIcNS_11char_traitsIcEENS_9allocatorIcEEEENS4_IS6_EEE9push_backB7v160006EOS6_, symObjAddr: 0x35C, symBinAddr: 0x100002D0C, symSize: 0x6C }
  - { offsetInCU: 0xAAEB, offset: 0xAAEB, size: 0x8, addend: 0x0, symName: __ZNKSt3__16vectorINS_12basic_stringIcNS_11char_traitsIcEENS_9allocatorIcEEEENS4_IS6_EEE4sizeB7v160006Ev, symObjAddr: 0x3C8, symBinAddr: 0x100002D78, symSize: 0x28 }
  - { offsetInCU: 0xAB11, offset: 0xAB11, size: 0x8, addend: 0x0, symName: __ZNSt3__16vectorINS_12basic_stringIcNS_11char_traitsIcEENS_9allocatorIcEEEENS4_IS6_EEEixB7v160006Em, symObjAddr: 0x3F0, symBinAddr: 0x100002DA0, symSize: 0x2C }
  - { offsetInCU: 0xAB48, offset: 0xAB48, size: 0x8, addend: 0x0, symName: __ZN4sdds13CustomerOrder4ItemC1ERKNSt3__112basic_stringIcNS2_11char_traitsIcEENS2_9allocatorIcEEEE, symObjAddr: 0x41C, symBinAddr: 0x100002DCC, symSize: 0x34 }
  - { offsetInCU: 0xAB80, offset: 0xAB80, size: 0x8, addend: 0x0, symName: __ZNSt3__16vectorINS_12basic_stringIcNS_11char_traitsIcEENS_9allocatorIcEEEENS4_IS6_EEED1B7v160006Ev, symObjAddr: 0x450, symBinAddr: 0x100002E00, symSize: 0x2C }
  - { offsetInCU: 0xABAA, offset: 0xABAA, size: 0x8, addend: 0x0, symName: __ZN4sdds13CustomerOrderC1ERKNSt3__112basic_stringIcNS1_11char_traitsIcEENS1_9allocatorIcEEEE, symObjAddr: 0x47C, symBinAddr: 0x100002E2C, symSize: 0x34 }
  - { offsetInCU: 0xABE4, offset: 0xABE4, size: 0x8, addend: 0x0, symName: __ZN4sdds13CustomerOrderC2ERKS0_, symObjAddr: 0x4B0, symBinAddr: 0x100002E60, symSize: 0xC8 }
  - { offsetInCU: 0xAC20, offset: 0xAC20, size: 0x8, addend: 0x0, symName: __ZNSt3__112basic_stringIcNS_11char_traitsIcEENS_9allocatorIcEEEC1B7v160006IDnEEPKc, symObjAddr: 0x578, symBinAddr: 0x100002F28, symSize: 0x34 }
  - { offsetInCU: 0xAC5E, offset: 0xAC5E, size: 0x8, addend: 0x0, symName: __ZN4sdds13CustomerOrderC1ERKS0_, symObjAddr: 0x5AC, symBinAddr: 0x100002F5C, symSize: 0x34 }
  - { offsetInCU: 0xAC95, offset: 0xAC95, size: 0x8, addend: 0x0, symName: __ZN4sdds13CustomerOrderC2EOS0_, symObjAddr: 0x5E0, symBinAddr: 0x100002F90, symSize: 0x50 }
  - { offsetInCU: 0xACCF, offset: 0xACCF, size: 0x8, addend: 0x0, symName: __ZN4sdds13CustomerOrderaSEOS0_, symObjAddr: 0x630, symBinAddr: 0x100002FE0, symSize: 0x128 }
  - { offsetInCU: 0xAD21, offset: 0xAD21, size: 0x8, addend: 0x0, symName: __ZN4sdds13CustomerOrderC1EOS0_, symObjAddr: 0x758, symBinAddr: 0x100003108, symSize: 0x34 }
  - { offsetInCU: 0xAD5B, offset: 0xAD5B, size: 0x8, addend: 0x0, symName: __ZN4sdds13CustomerOrder4ItemD1Ev, symObjAddr: 0x78C, symBinAddr: 0x10000313C, symSize: 0x2C }
  - { offsetInCU: 0xAD87, offset: 0xAD87, size: 0x8, addend: 0x0, symName: __ZNSt3__112basic_stringIcNS_11char_traitsIcEENS_9allocatorIcEEEaSB7v160006EOS5_, symObjAddr: 0x7B8, symBinAddr: 0x100003168, symSize: 0x34 }
  - { offsetInCU: 0xADBC, offset: 0xADBC, size: 0x8, addend: 0x0, symName: __ZN4sdds13CustomerOrderD2Ev, symObjAddr: 0x7EC, symBinAddr: 0x10000319C, symSize: 0xD8 }
  - { offsetInCU: 0xAE04, offset: 0xAE04, size: 0x8, addend: 0x0, symName: __ZN4sdds13CustomerOrderD1Ev, symObjAddr: 0x8C4, symBinAddr: 0x100003274, symSize: 0x2C }
  - { offsetInCU: 0xAE30, offset: 0xAE30, size: 0x8, addend: 0x0, symName: __ZNK4sdds13CustomerOrder13isOrderFilledEv, symObjAddr: 0x8F0, symBinAddr: 0x1000032A0, symSize: 0x9C }
  - { offsetInCU: 0xAE74, offset: 0xAE74, size: 0x8, addend: 0x0, symName: __ZNK4sdds13CustomerOrder12isItemFilledERKNSt3__112basic_stringIcNS1_11char_traitsIcEENS1_9allocatorIcEEEE, symObjAddr: 0x98C, symBinAddr: 0x10000333C, symSize: 0xCC }
  - { offsetInCU: 0xAEC6, offset: 0xAEC6, size: 0x8, addend: 0x0, symName: __ZN4sdds13CustomerOrder8fillItemERNS_7StationERNSt3__113basic_ostreamIcNS3_11char_traitsIcEEEE, symObjAddr: 0xBA0, symBinAddr: 0x100003550, symSize: 0x18C }
  - { offsetInCU: 0xAF34, offset: 0xAF34, size: 0x8, addend: 0x0, symName: __ZNK4sdds13CustomerOrder7displayERNSt3__113basic_ostreamIcNS1_11char_traitsIcEEEE, symObjAddr: 0xDC0, symBinAddr: 0x100003770, symSize: 0x1BC }
  - { offsetInCU: 0xAF86, offset: 0xAF86, size: 0x8, addend: 0x0, symName: __ZNSt3__113basic_ostreamIcNS_11char_traitsIcEEElsB7v160006EPFRS3_S4_E, symObjAddr: 0xF7C, symBinAddr: 0x10000392C, symSize: 0x2C }
  - { offsetInCU: 0xAFBA, offset: 0xAFBA, size: 0x8, addend: 0x0, symName: __ZN4sdds13CustomerOrder13setWidthFieldEm, symObjAddr: 0x10D8, symBinAddr: 0x100003A88, symSize: 0x1C }
  - { offsetInCU: 0xAFDF, offset: 0xAFDF, size: 0x8, addend: 0x0, symName: __ZN4sdds9UtilitiesC2Ev, symObjAddr: 0x10F4, symBinAddr: 0x100003AA4, symSize: 0x1C }
  - { offsetInCU: 0xB00B, offset: 0xB00B, size: 0x8, addend: 0x0, symName: __ZN4sdds13CustomerOrder4ItemC2ERKNSt3__112basic_stringIcNS2_11char_traitsIcEENS2_9allocatorIcEEEE, symObjAddr: 0x1110, symBinAddr: 0x100003AC0, symSize: 0x3C }
  - { offsetInCU: 0xB043, offset: 0xB043, size: 0x8, addend: 0x0, symName: __ZN4sdds13CustomerOrder4ItemD2Ev, symObjAddr: 0x114C, symBinAddr: 0x100003AFC, symSize: 0x2C }
  - { offsetInCU: 0xB06F, offset: 0xB06F, size: 0x8, addend: 0x0, symName: __ZNSt3__18__iom_t6C1B7v160006Ei, symObjAddr: 0x1178, symBinAddr: 0x100003B28, symSize: 0x34 }
  - { offsetInCU: 0xB0A7, offset: 0xB0A7, size: 0x8, addend: 0x0, symName: __ZNSt3__18__iom_t6C2B7v160006Ei, symObjAddr: 0x11AC, symBinAddr: 0x100003B5C, symSize: 0x20 }
  - { offsetInCU: 0xB0DF, offset: 0xB0DF, size: 0x8, addend: 0x0, symName: __ZNSt3__112basic_stringIcNS_11char_traitsIcEENS_9allocatorIcEEEC2B7v160006Ev, symObjAddr: 0x11CC, symBinAddr: 0x100003B7C, symSize: 0x54 }
  - { offsetInCU: 0xB10E, offset: 0xB10E, size: 0x8, addend: 0x0, symName: __ZNSt3__117__compressed_pairINS_12basic_stringIcNS_11char_traitsIcEENS_9allocatorIcEEE5__repES5_EC1B7v160006INS_18__default_init_tagESA_EEOT_OT0_, symObjAddr: 0x1220, symBinAddr: 0x100003BD0, symSize: 0x3C }
  - { offsetInCU: 0xB166, offset: 0xB166, size: 0x8, addend: 0x0, symName: __ZNSt3__112basic_stringIcNS_11char_traitsIcEENS_9allocatorIcEEE14__default_initB7v160006Ev, symObjAddr: 0x1278, symBinAddr: 0x100003C28, symSize: 0x40 }
  - { offsetInCU: 0xB18C, offset: 0xB18C, size: 0x8, addend: 0x0, symName: __ZNSt3__117__compressed_pairINS_12basic_stringIcNS_11char_traitsIcEENS_9allocatorIcEEE5__repES5_EC2B7v160006INS_18__default_init_tagESA_EEOT_OT0_, symObjAddr: 0x12B8, symBinAddr: 0x100003C68, symSize: 0x3C }
  - { offsetInCU: 0xB1E4, offset: 0xB1E4, size: 0x8, addend: 0x0, symName: __ZNSt3__122__compressed_pair_elemINS_12basic_stringIcNS_11char_traitsIcEENS_9allocatorIcEEE5__repELi0ELb0EEC2B7v160006ENS_18__default_init_tagE, symObjAddr: 0x12F4, symBinAddr: 0x100003CA4, symSize: 0x14 }
  - { offsetInCU: 0xB219, offset: 0xB219, size: 0x8, addend: 0x0, symName: __ZNSt3__122__compressed_pair_elemINS_9allocatorIcEELi1ELb1EEC2B7v160006ENS_18__default_init_tagE, symObjAddr: 0x1308, symBinAddr: 0x100003CB8, symSize: 0x2C }
  - { offsetInCU: 0xB24E, offset: 0xB24E, size: 0x8, addend: 0x0, symName: __ZNSt3__19allocatorIcEC2B7v160006Ev, symObjAddr: 0x1334, symBinAddr: 0x100003CE4, symSize: 0x2C }
  - { offsetInCU: 0xB278, offset: 0xB278, size: 0x8, addend: 0x0, symName: __ZNSt3__116__non_trivial_ifILb1ENS_9allocatorIcEEEC2B7v160006Ev, symObjAddr: 0x1360, symBinAddr: 0x100003D10, symSize: 0x14 }
  - { offsetInCU: 0xB2A2, offset: 0xB2A2, size: 0x8, addend: 0x0, symName: __ZNSt3__117__compressed_pairINS_12basic_stringIcNS_11char_traitsIcEENS_9allocatorIcEEE5__repES5_E5firstB7v160006Ev, symObjAddr: 0x1374, symBinAddr: 0x100003D24, symSize: 0x24 }
  - { offsetInCU: 0xB2C8, offset: 0xB2C8, size: 0x8, addend: 0x0, symName: __ZNSt3__122__compressed_pair_elemINS_12basic_stringIcNS_11char_traitsIcEENS_9allocatorIcEEE5__repELi0ELb0EE5__getB7v160006Ev, symObjAddr: 0x1398, symBinAddr: 0x100003D48, symSize: 0x14 }
  - { offsetInCU: 0xB2EE, offset: 0xB2EE, size: 0x8, addend: 0x0, symName: __ZNSt3__16vectorINS_12basic_stringIcNS_11char_traitsIcEENS_9allocatorIcEEEENS4_IS6_EEEC2B7v160006Ev, symObjAddr: 0x13AC, symBinAddr: 0x100003D5C, symSize: 0x58 }
  - { offsetInCU: 0xB31D, offset: 0xB31D, size: 0x8, addend: 0x0, symName: __ZNSt3__117__compressed_pairIPNS_12basic_stringIcNS_11char_traitsIcEENS_9allocatorIcEEEENS4_IS6_EEEC1B7v160006IDnNS_18__default_init_tagEEEOT_OT0_, symObjAddr: 0x1404, symBinAddr: 0x100003DB4, symSize: 0x3C }
  - { offsetInCU: 0xB375, offset: 0xB375, size: 0x8, addend: 0x0, symName: __ZNSt3__117__compressed_pairIPNS_12basic_stringIcNS_11char_traitsIcEENS_9allocatorIcEEEENS4_IS6_EEEC2B7v160006IDnNS_18__default_init_tagEEEOT_OT0_, symObjAddr: 0x1450, symBinAddr: 0x100003E00, symSize: 0x40 }
  - { offsetInCU: 0xB3CD, offset: 0xB3CD, size: 0x8, addend: 0x0, symName: __ZNSt3__122__compressed_pair_elemIPNS_12basic_stringIcNS_11char_traitsIcEENS_9allocatorIcEEEELi0ELb0EEC2B7v160006IDnvEEOT_, symObjAddr: 0x1490, symBinAddr: 0x100003E40, symSize: 0x1C }
  - { offsetInCU: 0xB40F, offset: 0xB40F, size: 0x8, addend: 0x0, symName: __ZNSt3__122__compressed_pair_elemINS_9allocatorINS_12basic_stringIcNS_11char_traitsIcEENS1_IcEEEEEELi1ELb1EEC2B7v160006ENS_18__default_init_tagE, symObjAddr: 0x14AC, symBinAddr: 0x100003E5C, symSize: 0x2C }
  - { offsetInCU: 0xB444, offset: 0xB444, size: 0x8, addend: 0x0, symName: __ZNSt3__19allocatorINS_12basic_stringIcNS_11char_traitsIcEENS0_IcEEEEEC2B7v160006Ev, symObjAddr: 0x14D8, symBinAddr: 0x100003E88, symSize: 0x2C }
  - { offsetInCU: 0xB46E, offset: 0xB46E, size: 0x8, addend: 0x0, symName: __ZNSt3__116__non_trivial_ifILb1ENS_9allocatorINS_12basic_stringIcNS_11char_traitsIcEENS1_IcEEEEEEEC2B7v160006Ev, symObjAddr: 0x1504, symBinAddr: 0x100003EB4, symSize: 0x14 }
  - { offsetInCU: 0xB498, offset: 0xB498, size: 0x8, addend: 0x0, symName: __ZNSt3__16vectorINS_12basic_stringIcNS_11char_traitsIcEENS_9allocatorIcEEEENS4_IS6_EEED2B7v160006Ev, symObjAddr: 0x1518, symBinAddr: 0x100003EC8, symSize: 0x44 }
  - { offsetInCU: 0xB4C2, offset: 0xB4C2, size: 0x8, addend: 0x0, symName: __ZNSt3__16vectorINS_12basic_stringIcNS_11char_traitsIcEENS_9allocatorIcEEEENS4_IS6_EEE16__destroy_vectorC1ERS8_, symObjAddr: 0x155C, symBinAddr: 0x100003F0C, symSize: 0x34 }
  - { offsetInCU: 0xB4FB, offset: 0xB4FB, size: 0x8, addend: 0x0, symName: __ZNSt3__16vectorINS_12basic_stringIcNS_11char_traitsIcEENS_9allocatorIcEEEENS4_IS6_EEE16__destroy_vectorclB7v160006Ev, symObjAddr: 0x1590, symBinAddr: 0x100003F40, symSize: 0x9C }
  - { offsetInCU: 0xB521, offset: 0xB521, size: 0x8, addend: 0x0, symName: __ZNSt3__16vectorINS_12basic_stringIcNS_11char_traitsIcEENS_9allocatorIcEEEENS4_IS6_EEE16__destroy_vectorC2ERS8_, symObjAddr: 0x162C, symBinAddr: 0x100003FDC, symSize: 0x20 }
  - { offsetInCU: 0xB55A, offset: 0xB55A, size: 0x8, addend: 0x0, symName: __ZNKSt3__16vectorINS_12basic_stringIcNS_11char_traitsIcEENS_9allocatorIcEEEENS4_IS6_EEE17__annotate_deleteB7v160006Ev, symObjAddr: 0x164C, symBinAddr: 0x100003FFC, symSize: 0xD4 }
  - { offsetInCU: 0xB580, offset: 0xB580, size: 0x8, addend: 0x0, symName: __ZNSt3__16vectorINS_12basic_stringIcNS_11char_traitsIcEENS_9allocatorIcEEEENS4_IS6_EEE7__clearB7v160006Ev, symObjAddr: 0x1730, symBinAddr: 0x1000040E0, symSize: 0x28 }
  - { offsetInCU: 0xB5A6, offset: 0xB5A6, size: 0x8, addend: 0x0, symName: __ZNSt3__116allocator_traitsINS_9allocatorINS_12basic_stringIcNS_11char_traitsIcEENS1_IcEEEEEEE10deallocateB7v160006ERS7_PS6_m, symObjAddr: 0x1758, symBinAddr: 0x100004108, symSize: 0x34 }
  - { offsetInCU: 0xB5E8, offset: 0xB5E8, size: 0x8, addend: 0x0, symName: __ZNSt3__16vectorINS_12basic_stringIcNS_11char_traitsIcEENS_9allocatorIcEEEENS4_IS6_EEE7__allocB7v160006Ev, symObjAddr: 0x178C, symBinAddr: 0x10000413C, symSize: 0x28 }
  - { offsetInCU: 0xB60E, offset: 0xB60E, size: 0x8, addend: 0x0, symName: __ZNKSt3__16vectorINS_12basic_stringIcNS_11char_traitsIcEENS_9allocatorIcEEEENS4_IS6_EEE8capacityB7v160006Ev, symObjAddr: 0x17B4, symBinAddr: 0x100004164, symSize: 0x40 }
  - { offsetInCU: 0xB634, offset: 0xB634, size: 0x8, addend: 0x0, symName: __ZNKSt3__16vectorINS_12basic_stringIcNS_11char_traitsIcEENS_9allocatorIcEEEENS4_IS6_EEE31__annotate_contiguous_containerB7v160006EPKvSA_SA_SA_, symObjAddr: 0x17F4, symBinAddr: 0x1000041A4, symSize: 0x20 }
  - { offsetInCU: 0xB68A, offset: 0xB68A, size: 0x8, addend: 0x0, symName: __ZNKSt3__16vectorINS_12basic_stringIcNS_11char_traitsIcEENS_9allocatorIcEEEENS4_IS6_EEE4dataB7v160006Ev, symObjAddr: 0x1814, symBinAddr: 0x1000041C4, symSize: 0x28 }
  - { offsetInCU: 0xB6B0, offset: 0xB6B0, size: 0x8, addend: 0x0, symName: __ZNSt3__16vectorINS_12basic_stringIcNS_11char_traitsIcEENS_9allocatorIcEEEENS4_IS6_EEE22__base_destruct_at_endB7v160006EPS6_, symObjAddr: 0x1850, symBinAddr: 0x100004200, symSize: 0x8C }
  - { offsetInCU: 0xB6F4, offset: 0xB6F4, size: 0x8, addend: 0x0, symName: __ZNSt3__116allocator_traitsINS_9allocatorINS_12basic_stringIcNS_11char_traitsIcEENS1_IcEEEEEEE7destroyB7v160006IS6_vEEvRS7_PT_, symObjAddr: 0x18DC, symBinAddr: 0x10000428C, symSize: 0x2C }
  - { offsetInCU: 0xB731, offset: 0xB731, size: 0x8, addend: 0x0, symName: __ZNSt3__19allocatorINS_12basic_stringIcNS_11char_traitsIcEENS0_IcEEEEE7destroyB7v160006EPS5_, symObjAddr: 0x1908, symBinAddr: 0x1000042B8, symSize: 0x28 }
  - { offsetInCU: 0xB765, offset: 0xB765, size: 0x8, addend: 0x0, symName: __ZNSt3__19allocatorINS_12basic_stringIcNS_11char_traitsIcEENS0_IcEEEEE10deallocateB7v160006EPS5_m, symObjAddr: 0x1930, symBinAddr: 0x1000042E0, symSize: 0x44 }
  - { offsetInCU: 0xB7A7, offset: 0xB7A7, size: 0x8, addend: 0x0, symName: __ZNSt3__117__compressed_pairIPNS_12basic_stringIcNS_11char_traitsIcEENS_9allocatorIcEEEENS4_IS6_EEE6secondB7v160006Ev, symObjAddr: 0x1A9C, symBinAddr: 0x10000444C, symSize: 0x24 }
  - { offsetInCU: 0xB7CD, offset: 0xB7CD, size: 0x8, addend: 0x0, symName: __ZNSt3__122__compressed_pair_elemINS_9allocatorINS_12basic_stringIcNS_11char_traitsIcEENS1_IcEEEEEELi1ELb1EE5__getB7v160006Ev, symObjAddr: 0x1AC0, symBinAddr: 0x100004470, symSize: 0x14 }
  - { offsetInCU: 0xB7F3, offset: 0xB7F3, size: 0x8, addend: 0x0, symName: __ZNKSt3__16vectorINS_12basic_stringIcNS_11char_traitsIcEENS_9allocatorIcEEEENS4_IS6_EEE9__end_capB7v160006Ev, symObjAddr: 0x1AD4, symBinAddr: 0x100004484, symSize: 0x28 }
  - { offsetInCU: 0xB819, offset: 0xB819, size: 0x8, addend: 0x0, symName: __ZNKSt3__117__compressed_pairIPNS_12basic_stringIcNS_11char_traitsIcEENS_9allocatorIcEEEENS4_IS6_EEE5firstB7v160006Ev, symObjAddr: 0x1AFC, symBinAddr: 0x1000044AC, symSize: 0x24 }
  - { offsetInCU: 0xB83F, offset: 0xB83F, size: 0x8, addend: 0x0, symName: __ZNKSt3__122__compressed_pair_elemIPNS_12basic_stringIcNS_11char_traitsIcEENS_9allocatorIcEEEELi0ELb0EE5__getB7v160006Ev, symObjAddr: 0x1B20, symBinAddr: 0x1000044D0, symSize: 0x14 }
  - { offsetInCU: 0xB865, offset: 0xB865, size: 0x8, addend: 0x0, symName: __ZNSt3__16vectorINS_12basic_stringIcNS_11char_traitsIcEENS_9allocatorIcEEEENS4_IS6_EEE9__end_capB7v160006Ev, symObjAddr: 0x1B34, symBinAddr: 0x1000044E4, symSize: 0x28 }
  - { offsetInCU: 0xB890, offset: 0xB890, size: 0x8, addend: 0x0, symName: __ZNSt3__16vectorINS_12basic_stringIcNS_11char_traitsIcEENS_9allocatorIcEEEENS4_IS6_EEE22__construct_one_at_endB7v160006IJS6_EEEvDpOT_, symObjAddr: 0x1B5C, symBinAddr: 0x10000450C, symSize: 0x90 }
  - { offsetInCU: 0xB8DF, offset: 0xB8DF, size: 0x8, addend: 0x0, symName: __ZNSt3__16vectorINS_12basic_stringIcNS_11char_traitsIcEENS_9allocatorIcEEEENS4_IS6_EEE21__push_back_slow_pathIS6_EEvOT_, symObjAddr: 0x1BEC, symBinAddr: 0x10000459C, symSize: 0xD8 }
  - { offsetInCU: 0xB93C, offset: 0xB93C, size: 0x8, addend: 0x0, symName: __ZNSt3__117__compressed_pairIPNS_12basic_stringIcNS_11char_traitsIcEENS_9allocatorIcEEEENS4_IS6_EEE5firstB7v160006Ev, symObjAddr: 0x1CC4, symBinAddr: 0x100004674, symSize: 0x24 }
  - { offsetInCU: 0xB962, offset: 0xB962, size: 0x8, addend: 0x0, symName: __ZNSt3__122__compressed_pair_elemIPNS_12basic_stringIcNS_11char_traitsIcEENS_9allocatorIcEEEELi0ELb0EE5__getB7v160006Ev, symObjAddr: 0x1CE8, symBinAddr: 0x100004698, symSize: 0x14 }
  - { offsetInCU: 0xB9A1, offset: 0xB9A1, size: 0x8, addend: 0x0, symName: __ZNSt3__16vectorINS_12basic_stringIcNS_11char_traitsIcEENS_9allocatorIcEEEENS4_IS6_EEE21_ConstructTransactionC1B7v160006ERS8_m, symObjAddr: 0x1CFC, symBinAddr: 0x1000046AC, symSize: 0x3C }
  - { offsetInCU: 0xB9E9, offset: 0xB9E9, size: 0x8, addend: 0x0, symName: __ZNSt3__116allocator_traitsINS_9allocatorINS_12basic_stringIcNS_11char_traitsIcEENS1_IcEEEEEEE9constructB7v160006IS6_JS6_EvEEvRS7_PT_DpOT0_, symObjAddr: 0x1D38, symBinAddr: 0x1000046E8, symSize: 0x34 }
  - { offsetInCU: 0xBA40, offset: 0xBA40, size: 0x8, addend: 0x0, symName: __ZNSt3__16vectorINS_12basic_stringIcNS_11char_traitsIcEENS_9allocatorIcEEEENS4_IS6_EEE21_ConstructTransactionD1B7v160006Ev, symObjAddr: 0x1D6C, symBinAddr: 0x10000471C, symSize: 0x2C }
  - { offsetInCU: 0xBA6A, offset: 0xBA6A, size: 0x8, addend: 0x0, symName: __ZNSt3__16vectorINS_12basic_stringIcNS_11char_traitsIcEENS_9allocatorIcEEEENS4_IS6_EEE21_ConstructTransactionC2B7v160006ERS8_m, symObjAddr: 0x1D98, symBinAddr: 0x100004748, symSize: 0x4C }
  - { offsetInCU: 0xBAB2, offset: 0xBAB2, size: 0x8, addend: 0x0, symName: __ZNSt3__19allocatorINS_12basic_stringIcNS_11char_traitsIcEENS0_IcEEEEE9constructB7v160006IS5_JS5_EEEvPT_DpOT0_, symObjAddr: 0x1DE4, symBinAddr: 0x100004794, symSize: 0x30 }
  - { offsetInCU: 0xBB08, offset: 0xBB08, size: 0x8, addend: 0x0, symName: __ZNSt3__112basic_stringIcNS_11char_traitsIcEENS_9allocatorIcEEEC1B7v160006EOS5_, symObjAddr: 0x1E14, symBinAddr: 0x1000047C4, symSize: 0x34 }
  - { offsetInCU: 0xBB41, offset: 0xBB41, size: 0x8, addend: 0x0, symName: __ZNSt3__112basic_stringIcNS_11char_traitsIcEENS_9allocatorIcEEEC2B7v160006EOS5_, symObjAddr: 0x1E48, symBinAddr: 0x1000047F8, symSize: 0x80 }
  - { offsetInCU: 0xBB7A, offset: 0xBB7A, size: 0x8, addend: 0x0, symName: __ZNKSt3__112basic_stringIcNS_11char_traitsIcEENS_9allocatorIcEEE9__is_longB7v160006Ev, symObjAddr: 0x1EC8, symBinAddr: 0x100004878, symSize: 0x38 }
  - { offsetInCU: 0xBBA0, offset: 0xBBA0, size: 0x8, addend: 0x0, symName: __ZNKSt3__117__compressed_pairINS_12basic_stringIcNS_11char_traitsIcEENS_9allocatorIcEEE5__repES5_E5firstB7v160006Ev, symObjAddr: 0x1F14, symBinAddr: 0x1000048C4, symSize: 0x24 }
  - { offsetInCU: 0xBBC6, offset: 0xBBC6, size: 0x8, addend: 0x0, symName: __ZNKSt3__122__compressed_pair_elemINS_12basic_stringIcNS_11char_traitsIcEENS_9allocatorIcEEE5__repELi0ELb0EE5__getB7v160006Ev, symObjAddr: 0x1F38, symBinAddr: 0x1000048E8, symSize: 0x14 }
  - { offsetInCU: 0xBBEC, offset: 0xBBEC, size: 0x8, addend: 0x0, symName: __ZNSt3__16vectorINS_12basic_stringIcNS_11char_traitsIcEENS_9allocatorIcEEEENS4_IS6_EEE21_ConstructTransactionD2B7v160006Ev, symObjAddr: 0x1F4C, symBinAddr: 0x1000048FC, symSize: 0x20 }
  - { offsetInCU: 0xBC16, offset: 0xBC16, size: 0x8, addend: 0x0, symName: __ZNKSt3__16vectorINS_12basic_stringIcNS_11char_traitsIcEENS_9allocatorIcEEEENS4_IS6_EEE11__recommendB7v160006Em, symObjAddr: 0x1F6C, symBinAddr: 0x10000491C, symSize: 0xB4 }
  - { offsetInCU: 0xBC6A, offset: 0xBC6A, size: 0x8, addend: 0x0, symName: __ZNSt3__114__split_bufferINS_12basic_stringIcNS_11char_traitsIcEENS_9allocatorIcEEEERNS4_IS6_EEEC1EmmS8_, symObjAddr: 0x2020, symBinAddr: 0x1000049D0, symSize: 0x44 }
  - { offsetInCU: 0xBCC0, offset: 0xBCC0, size: 0x8, addend: 0x0, symName: __ZNSt3__114__split_bufferINS_12basic_stringIcNS_11char_traitsIcEENS_9allocatorIcEEEERNS4_IS6_EEED1Ev, symObjAddr: 0x217C, symBinAddr: 0x100004B2C, symSize: 0x2C }
  - { offsetInCU: 0xBCEC, offset: 0xBCEC, size: 0x8, addend: 0x0, symName: __ZNKSt3__16vectorINS_12basic_stringIcNS_11char_traitsIcEENS_9allocatorIcEEEENS4_IS6_EEE8max_sizeEv, symObjAddr: 0x21A8, symBinAddr: 0x100004B58, symSize: 0x60 }
  - { offsetInCU: 0xBD13, offset: 0xBD13, size: 0x8, addend: 0x0, symName: __ZNKSt3__16vectorINS_12basic_stringIcNS_11char_traitsIcEENS_9allocatorIcEEEENS4_IS6_EEE20__throw_length_errorB7v160006Ev, symObjAddr: 0x2208, symBinAddr: 0x100004BB8, symSize: 0x1C }
  - { offsetInCU: 0xBD43, offset: 0xBD43, size: 0x8, addend: 0x0, symName: __ZNSt3__116allocator_traitsINS_9allocatorINS_12basic_stringIcNS_11char_traitsIcEENS1_IcEEEEEEE8max_sizeB7v160006IS7_vEEmRKS7_, symObjAddr: 0x227C, symBinAddr: 0x100004C2C, symSize: 0x24 }
  - { offsetInCU: 0xBD71, offset: 0xBD71, size: 0x8, addend: 0x0, symName: __ZNKSt3__16vectorINS_12basic_stringIcNS_11char_traitsIcEENS_9allocatorIcEEEENS4_IS6_EEE7__allocB7v160006Ev, symObjAddr: 0x22A0, symBinAddr: 0x100004C50, symSize: 0x28 }
  - { offsetInCU: 0xBD97, offset: 0xBD97, size: 0x8, addend: 0x0, symName: __ZNSt3__114numeric_limitsIlE3maxB7v160006Ev, symObjAddr: 0x22C8, symBinAddr: 0x100004C78, symSize: 0x14 }
  - { offsetInCU: 0xBDBF, offset: 0xBDBF, size: 0x8, addend: 0x0, symName: __ZNKSt3__16__lessImmEclB7v160006ERKmS3_, symObjAddr: 0x2330, symBinAddr: 0x100004CE0, symSize: 0x34 }
  - { offsetInCU: 0xBE01, offset: 0xBE01, size: 0x8, addend: 0x0, symName: __ZNKSt3__19allocatorINS_12basic_stringIcNS_11char_traitsIcEENS0_IcEEEEE8max_sizeB7v160006Ev, symObjAddr: 0x2364, symBinAddr: 0x100004D14, symSize: 0x18 }
  - { offsetInCU: 0xBE27, offset: 0xBE27, size: 0x8, addend: 0x0, symName: __ZNKSt3__117__compressed_pairIPNS_12basic_stringIcNS_11char_traitsIcEENS_9allocatorIcEEEENS4_IS6_EEE6secondB7v160006Ev, symObjAddr: 0x237C, symBinAddr: 0x100004D2C, symSize: 0x24 }
  - { offsetInCU: 0xBE4D, offset: 0xBE4D, size: 0x8, addend: 0x0, symName: __ZNKSt3__122__compressed_pair_elemINS_9allocatorINS_12basic_stringIcNS_11char_traitsIcEENS1_IcEEEEEELi1ELb1EE5__getB7v160006Ev, symObjAddr: 0x23A0, symBinAddr: 0x100004D50, symSize: 0x14 }
  - { offsetInCU: 0xBE73, offset: 0xBE73, size: 0x8, addend: 0x0, symName: __ZNSt3__123__libcpp_numeric_limitsIlLb1EE3maxB7v160006Ev, symObjAddr: 0x23B4, symBinAddr: 0x100004D64, symSize: 0x8 }
  - { offsetInCU: 0xBE87, offset: 0xBE87, size: 0x8, addend: 0x0, symName: __ZNSt12length_errorC1B7v160006EPKc, symObjAddr: 0x2420, symBinAddr: 0x100004DD0, symSize: 0x34 }
  - { offsetInCU: 0xBEBF, offset: 0xBEBF, size: 0x8, addend: 0x0, symName: __ZNSt12length_errorC2B7v160006EPKc, symObjAddr: 0x2454, symBinAddr: 0x100004E04, symSize: 0x4C }
  - { offsetInCU: 0xBEF7, offset: 0xBEF7, size: 0x8, addend: 0x0, symName: __ZNSt3__114__split_bufferINS_12basic_stringIcNS_11char_traitsIcEENS_9allocatorIcEEEERNS4_IS6_EEEC2EmmS8_, symObjAddr: 0x24F4, symBinAddr: 0x100004EA4, symSize: 0xE0 }
  - { offsetInCU: 0xBF6A, offset: 0xBF6A, size: 0x8, addend: 0x0, symName: __ZNSt3__117__compressed_pairIPNS_12basic_stringIcNS_11char_traitsIcEENS_9allocatorIcEEEERNS4_IS6_EEEC1B7v160006IDnS9_EEOT_OT0_, symObjAddr: 0x25D4, symBinAddr: 0x100004F84, symSize: 0x3C }
  - { offsetInCU: 0xBFC2, offset: 0xBFC2, size: 0x8, addend: 0x0, symName: __ZNSt3__114__split_bufferINS_12basic_stringIcNS_11char_traitsIcEENS_9allocatorIcEEEERNS4_IS6_EEE7__allocB7v160006Ev, symObjAddr: 0x2650, symBinAddr: 0x100005000, symSize: 0x28 }
  - { offsetInCU: 0xBFE8, offset: 0xBFE8, size: 0x8, addend: 0x0, symName: __ZNSt3__114__split_bufferINS_12basic_stringIcNS_11char_traitsIcEENS_9allocatorIcEEEERNS4_IS6_EEE9__end_capB7v160006Ev, symObjAddr: 0x2678, symBinAddr: 0x100005028, symSize: 0x28 }
  - { offsetInCU: 0xC00E, offset: 0xC00E, size: 0x8, addend: 0x0, symName: __ZNSt3__117__compressed_pairIPNS_12basic_stringIcNS_11char_traitsIcEENS_9allocatorIcEEEERNS4_IS6_EEEC2B7v160006IDnS9_EEOT_OT0_, symObjAddr: 0x26A0, symBinAddr: 0x100005050, symSize: 0x48 }
  - { offsetInCU: 0xC066, offset: 0xC066, size: 0x8, addend: 0x0, symName: __ZNSt3__122__compressed_pair_elemIRNS_9allocatorINS_12basic_stringIcNS_11char_traitsIcEENS1_IcEEEEEELi1ELb0EEC2B7v160006IS8_vEEOT_, symObjAddr: 0x26E8, symBinAddr: 0x100005098, symSize: 0x20 }
  - { offsetInCU: 0xC0A8, offset: 0xC0A8, size: 0x8, addend: 0x0, symName: __ZNSt3__19allocatorINS_12basic_stringIcNS_11char_traitsIcEENS0_IcEEEEE8allocateB7v160006Em, symObjAddr: 0x2708, symBinAddr: 0x1000050B8, symSize: 0x5C }
  - { offsetInCU: 0xC0DC, offset: 0xC0DC, size: 0x8, addend: 0x0, symName: __ZNSt3__117__compressed_pairIPNS_12basic_stringIcNS_11char_traitsIcEENS_9allocatorIcEEEERNS4_IS6_EEE6secondB7v160006Ev, symObjAddr: 0x2848, symBinAddr: 0x1000051F8, symSize: 0x28 }
  - { offsetInCU: 0xC102, offset: 0xC102, size: 0x8, addend: 0x0, symName: __ZNSt3__122__compressed_pair_elemIRNS_9allocatorINS_12basic_stringIcNS_11char_traitsIcEENS1_IcEEEEEELi1ELb0EE5__getB7v160006Ev, symObjAddr: 0x2870, symBinAddr: 0x100005220, symSize: 0x18 }
  - { offsetInCU: 0xC128, offset: 0xC128, size: 0x8, addend: 0x0, symName: __ZNSt3__117__compressed_pairIPNS_12basic_stringIcNS_11char_traitsIcEENS_9allocatorIcEEEERNS4_IS6_EEE5firstB7v160006Ev, symObjAddr: 0x2888, symBinAddr: 0x100005238, symSize: 0x24 }
  - { offsetInCU: 0xC14E, offset: 0xC14E, size: 0x8, addend: 0x0, symName: __ZNSt3__116reverse_iteratorIPNS_12basic_stringIcNS_11char_traitsIcEENS_9allocatorIcEEEEEC1B7v160006ES7_, symObjAddr: 0x29D8, symBinAddr: 0x100005388, symSize: 0x34 }
  - { offsetInCU: 0xC186, offset: 0xC186, size: 0x8, addend: 0x0, symName: __ZNKSt3__116reverse_iteratorIPNS_12basic_stringIcNS_11char_traitsIcEENS_9allocatorIcEEEEE4baseB7v160006Ev, symObjAddr: 0x2A0C, symBinAddr: 0x1000053BC, symSize: 0x18 }
  - { offsetInCU: 0xC1AC, offset: 0xC1AC, size: 0x8, addend: 0x0, symName: __ZNKSt3__16vectorINS_12basic_stringIcNS_11char_traitsIcEENS_9allocatorIcEEEENS4_IS6_EEE14__annotate_newB7v160006Em, symObjAddr: 0x2A60, symBinAddr: 0x100005410, symSize: 0xC8 }
  - { offsetInCU: 0xC1E1, offset: 0xC1E1, size: 0x8, addend: 0x0, symName: __ZNSt3__129_AllocatorDestroyRangeReverseINS_9allocatorINS_12basic_stringIcNS_11char_traitsIcEENS1_IcEEEEEENS_16reverse_iteratorIPS6_EEEC1B7v160006ERS7_RSA_SD_, symObjAddr: 0x2B84, symBinAddr: 0x100005534, symSize: 0x44 }
  - { offsetInCU: 0xC238, offset: 0xC238, size: 0x8, addend: 0x0, symName: __ZNKSt3__116reverse_iteratorIPNS_12basic_stringIcNS_11char_traitsIcEENS_9allocatorIcEEEEEdeB7v160006Ev, symObjAddr: 0x2C34, symBinAddr: 0x1000055E4, symSize: 0x28 }
  - { offsetInCU: 0xC26C, offset: 0xC26C, size: 0x8, addend: 0x0, symName: __ZNSt3__116reverse_iteratorIPNS_12basic_stringIcNS_11char_traitsIcEENS_9allocatorIcEEEEEppB7v160006Ev, symObjAddr: 0x2C5C, symBinAddr: 0x10000560C, symSize: 0x20 }
  - { offsetInCU: 0xC292, offset: 0xC292, size: 0x8, addend: 0x0, symName: __ZNSt3__128__exception_guard_exceptionsINS_29_AllocatorDestroyRangeReverseINS_9allocatorINS_12basic_stringIcNS_11char_traitsIcEENS2_IcEEEEEENS_16reverse_iteratorIPS7_EEEEE10__completeB7v160006Ev, symObjAddr: 0x2C7C, symBinAddr: 0x10000562C, symSize: 0x1C }
  - { offsetInCU: 0xC2B8, offset: 0xC2B8, size: 0x8, addend: 0x0, symName: __ZNSt3__128__exception_guard_exceptionsINS_29_AllocatorDestroyRangeReverseINS_9allocatorINS_12basic_stringIcNS_11char_traitsIcEENS2_IcEEEEEENS_16reverse_iteratorIPS7_EEEEED1B7v160006Ev, symObjAddr: 0x2C98, symBinAddr: 0x100005648, symSize: 0x2C }
  - { offsetInCU: 0xC2E2, offset: 0xC2E2, size: 0x8, addend: 0x0, symName: __ZNSt3__128__exception_guard_exceptionsINS_29_AllocatorDestroyRangeReverseINS_9allocatorINS_12basic_stringIcNS_11char_traitsIcEENS2_IcEEEEEENS_16reverse_iteratorIPS7_EEEEEC1B7v160006ESC_, symObjAddr: 0x2CC4, symBinAddr: 0x100005674, symSize: 0x34 }
  - { offsetInCU: 0xC31B, offset: 0xC31B, size: 0x8, addend: 0x0, symName: __ZNSt3__128__exception_guard_exceptionsINS_29_AllocatorDestroyRangeReverseINS_9allocatorINS_12basic_stringIcNS_11char_traitsIcEENS2_IcEEEEEENS_16reverse_iteratorIPS7_EEEEEC2B7v160006ESC_, symObjAddr: 0x2CF8, symBinAddr: 0x1000056A8, symSize: 0x30 }
  - { offsetInCU: 0xC354, offset: 0xC354, size: 0x8, addend: 0x0, symName: __ZNSt3__129_AllocatorDestroyRangeReverseINS_9allocatorINS_12basic_stringIcNS_11char_traitsIcEENS1_IcEEEEEENS_16reverse_iteratorIPS6_EEEC2B7v160006ERS7_RSA_SD_, symObjAddr: 0x2D28, symBinAddr: 0x1000056D8, symSize: 0x38 }
  - { offsetInCU: 0xC3B0, offset: 0xC3B0, size: 0x8, addend: 0x0, symName: __ZNSt3__119__to_address_helperINS_16reverse_iteratorIPNS_12basic_stringIcNS_11char_traitsIcEENS_9allocatorIcEEEEEEvE6__callB7v160006ERKS9_, symObjAddr: 0x2D60, symBinAddr: 0x100005710, symSize: 0x38 }
  - { offsetInCU: 0xC3D3, offset: 0xC3D3, size: 0x8, addend: 0x0, symName: __ZNKSt3__116reverse_iteratorIPNS_12basic_stringIcNS_11char_traitsIcEENS_9allocatorIcEEEEEptB7v160006Ev, symObjAddr: 0x2D98, symBinAddr: 0x100005748, symSize: 0x24 }
  - { offsetInCU: 0xC3F9, offset: 0xC3F9, size: 0x8, addend: 0x0, symName: __ZNSt3__128__exception_guard_exceptionsINS_29_AllocatorDestroyRangeReverseINS_9allocatorINS_12basic_stringIcNS_11char_traitsIcEENS2_IcEEEEEENS_16reverse_iteratorIPS7_EEEEED2B7v160006Ev, symObjAddr: 0x2DBC, symBinAddr: 0x10000576C, symSize: 0x50 }
  - { offsetInCU: 0xC423, offset: 0xC423, size: 0x8, addend: 0x0, symName: __ZNKSt3__129_AllocatorDestroyRangeReverseINS_9allocatorINS_12basic_stringIcNS_11char_traitsIcEENS1_IcEEEEEENS_16reverse_iteratorIPS6_EEEclB7v160006Ev, symObjAddr: 0x2E0C, symBinAddr: 0x1000057BC, symSize: 0xB4 }
  - { offsetInCU: 0xC44A, offset: 0xC44A, size: 0x8, addend: 0x0, symName: __ZNSt3__116reverse_iteratorINS0_IPNS_12basic_stringIcNS_11char_traitsIcEENS_9allocatorIcEEEEEEEC1B7v160006ES8_, symObjAddr: 0x2F30, symBinAddr: 0x1000058E0, symSize: 0x3C }
  - { offsetInCU: 0xC482, offset: 0xC482, size: 0x8, addend: 0x0, symName: __ZNSt3__116reverse_iteratorINS0_IPNS_12basic_stringIcNS_11char_traitsIcEENS_9allocatorIcEEEEEEEppB7v160006Ev, symObjAddr: 0x2FF0, symBinAddr: 0x1000059A0, symSize: 0x30 }
  - { offsetInCU: 0xC4A8, offset: 0xC4A8, size: 0x8, addend: 0x0, symName: __ZNKSt3__116reverse_iteratorINS0_IPNS_12basic_stringIcNS_11char_traitsIcEENS_9allocatorIcEEEEEEE4baseB7v160006Ev, symObjAddr: 0x3020, symBinAddr: 0x1000059D0, symSize: 0x24 }
  - { offsetInCU: 0xC4D3, offset: 0xC4D3, size: 0x8, addend: 0x0, symName: __ZNSt3__119__to_address_helperINS_16reverse_iteratorINS1_IPNS_12basic_stringIcNS_11char_traitsIcEENS_9allocatorIcEEEEEEEEvE6__callB7v160006ERKSA_, symObjAddr: 0x3044, symBinAddr: 0x1000059F4, symSize: 0x38 }
  - { offsetInCU: 0xC4F6, offset: 0xC4F6, size: 0x8, addend: 0x0, symName: __ZNKSt3__116reverse_iteratorINS0_IPNS_12basic_stringIcNS_11char_traitsIcEENS_9allocatorIcEEEEEEEptB7v160006Ev, symObjAddr: 0x307C, symBinAddr: 0x100005A2C, symSize: 0x24 }
  - { offsetInCU: 0xC51C, offset: 0xC51C, size: 0x8, addend: 0x0, symName: __ZNKSt3__116reverse_iteratorINS0_IPNS_12basic_stringIcNS_11char_traitsIcEENS_9allocatorIcEEEEEEEdeB7v160006Ev, symObjAddr: 0x30A0, symBinAddr: 0x100005A50, symSize: 0x34 }
  - { offsetInCU: 0xC550, offset: 0xC550, size: 0x8, addend: 0x0, symName: __ZNSt3__116reverse_iteratorIPNS_12basic_stringIcNS_11char_traitsIcEENS_9allocatorIcEEEEEmmB7v160006Ev, symObjAddr: 0x30D4, symBinAddr: 0x100005A84, symSize: 0x20 }
  - { offsetInCU: 0xC576, offset: 0xC576, size: 0x8, addend: 0x0, symName: __ZNSt3__116reverse_iteratorINS0_IPNS_12basic_stringIcNS_11char_traitsIcEENS_9allocatorIcEEEEEEEC2B7v160006ES8_, symObjAddr: 0x30F4, symBinAddr: 0x100005AA4, symSize: 0x2C }
  - { offsetInCU: 0xC5AE, offset: 0xC5AE, size: 0x8, addend: 0x0, symName: __ZNSt3__116reverse_iteratorIPNS_12basic_stringIcNS_11char_traitsIcEENS_9allocatorIcEEEEEC2B7v160006ES7_, symObjAddr: 0x3120, symBinAddr: 0x100005AD0, symSize: 0x28 }
  - { offsetInCU: 0xC5E6, offset: 0xC5E6, size: 0x8, addend: 0x0, symName: __ZNSt3__114__split_bufferINS_12basic_stringIcNS_11char_traitsIcEENS_9allocatorIcEEEERNS4_IS6_EEED2Ev, symObjAddr: 0x3148, symBinAddr: 0x100005AF8, symSize: 0x8C }
  - { offsetInCU: 0xC612, offset: 0xC612, size: 0x8, addend: 0x0, symName: __ZNSt3__114__split_bufferINS_12basic_stringIcNS_11char_traitsIcEENS_9allocatorIcEEEERNS4_IS6_EEE5clearB7v160006Ev, symObjAddr: 0x31D4, symBinAddr: 0x100005B84, symSize: 0x28 }
  - { offsetInCU: 0xC638, offset: 0xC638, size: 0x8, addend: 0x0, symName: __ZNKSt3__114__split_bufferINS_12basic_stringIcNS_11char_traitsIcEENS_9allocatorIcEEEERNS4_IS6_EEE8capacityB7v160006Ev, symObjAddr: 0x31FC, symBinAddr: 0x100005BAC, symSize: 0x40 }
  - { offsetInCU: 0xC65E, offset: 0xC65E, size: 0x8, addend: 0x0, symName: __ZNSt3__114__split_bufferINS_12basic_stringIcNS_11char_traitsIcEENS_9allocatorIcEEEERNS4_IS6_EEE17__destruct_at_endB7v160006EPS6_, symObjAddr: 0x323C, symBinAddr: 0x100005BEC, symSize: 0x2C }
  - { offsetInCU: 0xC692, offset: 0xC692, size: 0x8, addend: 0x0, symName: __ZNSt3__114__split_bufferINS_12basic_stringIcNS_11char_traitsIcEENS_9allocatorIcEEEERNS4_IS6_EEE17__destruct_at_endB7v160006EPS6_NS_17integral_constantIbLb0EEE, symObjAddr: 0x3268, symBinAddr: 0x100005C18, symSize: 0x80 }
  - { offsetInCU: 0xC6D2, offset: 0xC6D2, size: 0x8, addend: 0x0, symName: __ZNKSt3__114__split_bufferINS_12basic_stringIcNS_11char_traitsIcEENS_9allocatorIcEEEERNS4_IS6_EEE9__end_capB7v160006Ev, symObjAddr: 0x32E8, symBinAddr: 0x100005C98, symSize: 0x28 }
  - { offsetInCU: 0xC6F8, offset: 0xC6F8, size: 0x8, addend: 0x0, symName: __ZNKSt3__117__compressed_pairIPNS_12basic_stringIcNS_11char_traitsIcEENS_9allocatorIcEEEERNS4_IS6_EEE5firstB7v160006Ev, symObjAddr: 0x3310, symBinAddr: 0x100005CC0, symSize: 0x24 }
  - { offsetInCU: 0xC71E, offset: 0xC71E, size: 0x8, addend: 0x0, symName: __ZNSt3__112basic_stringIcNS_11char_traitsIcEENS_9allocatorIcEEEC2B7v160006IDnEEPKc, symObjAddr: 0x3334, symBinAddr: 0x100005CE4, symSize: 0x60 }
  - { offsetInCU: 0xC75C, offset: 0xC75C, size: 0x8, addend: 0x0, symName: __ZNSt3__111char_traitsIcE6lengthEPKc, symObjAddr: 0x3394, symBinAddr: 0x100005D44, symSize: 0x34 }
  - { offsetInCU: 0xC77F, offset: 0xC77F, size: 0x8, addend: 0x0, symName: __ZNSt3__112basic_stringIcNS_11char_traitsIcEENS_9allocatorIcEEE13__move_assignB7v160006ERS5_NS_17integral_constantIbLb1EEE, symObjAddr: 0x33EC, symBinAddr: 0x100005D9C, symSize: 0xC8 }
  - { offsetInCU: 0xC7C1, offset: 0xC7C1, size: 0x8, addend: 0x0, symName: __ZNSt3__116allocator_traitsINS_9allocatorIcEEE10deallocateB7v160006ERS2_Pcm, symObjAddr: 0x34B4, symBinAddr: 0x100005E64, symSize: 0x34 }
  - { offsetInCU: 0xC803, offset: 0xC803, size: 0x8, addend: 0x0, symName: __ZNSt3__112basic_stringIcNS_11char_traitsIcEENS_9allocatorIcEEE7__allocB7v160006Ev, symObjAddr: 0x34E8, symBinAddr: 0x100005E98, symSize: 0x24 }
  - { offsetInCU: 0xC829, offset: 0xC829, size: 0x8, addend: 0x0, symName: __ZNSt3__112basic_stringIcNS_11char_traitsIcEENS_9allocatorIcEEE18__get_long_pointerB7v160006Ev, symObjAddr: 0x350C, symBinAddr: 0x100005EBC, symSize: 0x28 }
  - { offsetInCU: 0xC84F, offset: 0xC84F, size: 0x8, addend: 0x0, symName: __ZNKSt3__112basic_stringIcNS_11char_traitsIcEENS_9allocatorIcEEE14__get_long_capB7v160006Ev, symObjAddr: 0x3534, symBinAddr: 0x100005EE4, symSize: 0x30 }
  - { offsetInCU: 0xC875, offset: 0xC875, size: 0x8, addend: 0x0, symName: __ZNSt3__112basic_stringIcNS_11char_traitsIcEENS_9allocatorIcEEE19__move_assign_allocB7v160006ERS5_, symObjAddr: 0x3564, symBinAddr: 0x100005F14, symSize: 0x2C }
  - { offsetInCU: 0xC8AA, offset: 0xC8AA, size: 0x8, addend: 0x0, symName: __ZNSt3__112basic_stringIcNS_11char_traitsIcEENS_9allocatorIcEEE16__set_short_sizeB7v160006Em, symObjAddr: 0x3590, symBinAddr: 0x100005F40, symSize: 0x78 }
  - { offsetInCU: 0xC8DF, offset: 0xC8DF, size: 0x8, addend: 0x0, symName: __ZNSt3__111char_traitsIcE6assignERcRKc, symObjAddr: 0x3608, symBinAddr: 0x100005FB8, symSize: 0x24 }
  - { offsetInCU: 0xC910, offset: 0xC910, size: 0x8, addend: 0x0, symName: __ZNSt3__112basic_stringIcNS_11char_traitsIcEENS_9allocatorIcEEE19__get_short_pointerB7v160006Ev, symObjAddr: 0x362C, symBinAddr: 0x100005FDC, symSize: 0x28 }
  - { offsetInCU: 0xC936, offset: 0xC936, size: 0x8, addend: 0x0, symName: __ZNSt3__19allocatorIcE10deallocateB7v160006EPcm, symObjAddr: 0x3654, symBinAddr: 0x100006004, symSize: 0x40 }
  - { offsetInCU: 0xC978, offset: 0xC978, size: 0x8, addend: 0x0, symName: __ZNSt3__117__compressed_pairINS_12basic_stringIcNS_11char_traitsIcEENS_9allocatorIcEEE5__repES5_E6secondB7v160006Ev, symObjAddr: 0x3694, symBinAddr: 0x100006044, symSize: 0x24 }
  - { offsetInCU: 0xC99E, offset: 0xC99E, size: 0x8, addend: 0x0, symName: __ZNSt3__122__compressed_pair_elemINS_9allocatorIcEELi1ELb1EE5__getB7v160006Ev, symObjAddr: 0x36B8, symBinAddr: 0x100006068, symSize: 0x14 }
  - { offsetInCU: 0xC9C4, offset: 0xC9C4, size: 0x8, addend: 0x0, symName: __ZNSt3__112basic_stringIcNS_11char_traitsIcEENS_9allocatorIcEEE19__move_assign_allocB7v160006ERS5_NS_17integral_constantIbLb1EEE, symObjAddr: 0x36CC, symBinAddr: 0x10000607C, symSize: 0x38 }
  - { offsetInCU: 0xCA05, offset: 0xCA05, size: 0x8, addend: 0x0, symName: __ZNSt3__114pointer_traitsIPcE10pointer_toB7v160006ERc, symObjAddr: 0x3704, symBinAddr: 0x1000060B4, symSize: 0x14 }
  - { offsetInCU: 0xCA28, offset: 0xCA28, size: 0x8, addend: 0x0, symName: __ZNKSt3__112basic_stringIcNS_11char_traitsIcEENS_9allocatorIcEEE4sizeB7v160006Ev, symObjAddr: 0x3718, symBinAddr: 0x1000060C8, symSize: 0x54 }
  - { offsetInCU: 0xCA4E, offset: 0xCA4E, size: 0x8, addend: 0x0, symName: __ZNKSt3__112basic_stringIcNS_11char_traitsIcEENS_9allocatorIcEEE4dataB7v160006Ev, symObjAddr: 0x376C, symBinAddr: 0x10000611C, symSize: 0x28 }
  - { offsetInCU: 0xCA74, offset: 0xCA74, size: 0x8, addend: 0x0, symName: __ZNSt3__111char_traitsIcE7compareEPKcS3_m, symObjAddr: 0x3794, symBinAddr: 0x100006144, symSize: 0x6C }
  - { offsetInCU: 0xCAB3, offset: 0xCAB3, size: 0x8, addend: 0x0, symName: __ZNKSt3__112basic_stringIcNS_11char_traitsIcEENS_9allocatorIcEEE15__get_long_sizeB7v160006Ev, symObjAddr: 0x3800, symBinAddr: 0x1000061B0, symSize: 0x28 }
  - { offsetInCU: 0xCAD9, offset: 0xCAD9, size: 0x8, addend: 0x0, symName: __ZNKSt3__112basic_stringIcNS_11char_traitsIcEENS_9allocatorIcEEE16__get_short_sizeB7v160006Ev, symObjAddr: 0x3828, symBinAddr: 0x1000061D8, symSize: 0x34 }
  - { offsetInCU: 0xCAFF, offset: 0xCAFF, size: 0x8, addend: 0x0, symName: __ZNKSt3__112basic_stringIcNS_11char_traitsIcEENS_9allocatorIcEEE13__get_pointerB7v160006Ev, symObjAddr: 0x3870, symBinAddr: 0x100006220, symSize: 0x54 }
  - { offsetInCU: 0xCB25, offset: 0xCB25, size: 0x8, addend: 0x0, symName: __ZNKSt3__112basic_stringIcNS_11char_traitsIcEENS_9allocatorIcEEE18__get_long_pointerB7v160006Ev, symObjAddr: 0x38C4, symBinAddr: 0x100006274, symSize: 0x28 }
  - { offsetInCU: 0xCB4B, offset: 0xCB4B, size: 0x8, addend: 0x0, symName: __ZNKSt3__112basic_stringIcNS_11char_traitsIcEENS_9allocatorIcEEE19__get_short_pointerB7v160006Ev, symObjAddr: 0x38EC, symBinAddr: 0x10000629C, symSize: 0x28 }
  - { offsetInCU: 0xCB71, offset: 0xCB71, size: 0x8, addend: 0x0, symName: __ZNSt3__114pointer_traitsIPKcE10pointer_toB7v160006ERS1_, symObjAddr: 0x3914, symBinAddr: 0x1000062C4, symSize: 0x14 }
  - { offsetInCU: 0xCBB2, offset: 0xCBB2, size: 0x8, addend: 0x0, symName: __ZNKSt3__113basic_ostreamIcNS_11char_traitsIcEEE6sentrycvbB7v160006Ev, symObjAddr: 0x3B48, symBinAddr: 0x1000064F8, symSize: 0x1C }
  - { offsetInCU: 0xCBD8, offset: 0xCBD8, size: 0x8, addend: 0x0, symName: __ZNSt3__119ostreambuf_iteratorIcNS_11char_traitsIcEEEC1B7v160006ERNS_13basic_ostreamIcS2_EE, symObjAddr: 0x3DA4, symBinAddr: 0x100006754, symSize: 0x34 }
  - { offsetInCU: 0xCC10, offset: 0xCC10, size: 0x8, addend: 0x0, symName: __ZNKSt3__18ios_base5flagsB7v160006Ev, symObjAddr: 0x3DD8, symBinAddr: 0x100006788, symSize: 0x18 }
  - { offsetInCU: 0xCC38, offset: 0xCC38, size: 0x8, addend: 0x0, symName: __ZNKSt3__19basic_iosIcNS_11char_traitsIcEEE4fillB7v160006Ev, symObjAddr: 0x3DF0, symBinAddr: 0x1000067A0, symSize: 0x64 }
  - { offsetInCU: 0xCC5F, offset: 0xCC5F, size: 0x8, addend: 0x0, symName: __ZNKSt3__119ostreambuf_iteratorIcNS_11char_traitsIcEEE6failedB7v160006Ev, symObjAddr: 0x3E54, symBinAddr: 0x100006804, symSize: 0x24 }
  - { offsetInCU: 0xCC85, offset: 0xCC85, size: 0x8, addend: 0x0, symName: __ZNSt3__19basic_iosIcNS_11char_traitsIcEEE8setstateB7v160006Ej, symObjAddr: 0x3E78, symBinAddr: 0x100006828, symSize: 0x2C }
  - { offsetInCU: 0xCCBA, offset: 0xCCBA, size: 0x8, addend: 0x0, symName: __ZNKSt3__18ios_base5widthB7v160006Ev, symObjAddr: 0x3EA4, symBinAddr: 0x100006854, symSize: 0x18 }
  - { offsetInCU: 0xCCE2, offset: 0xCCE2, size: 0x8, addend: 0x0, symName: __ZNSt3__115basic_streambufIcNS_11char_traitsIcEEE5sputnB7v160006EPKcl, symObjAddr: 0x3EBC, symBinAddr: 0x10000686C, symSize: 0x3C }
  - { offsetInCU: 0xCD24, offset: 0xCD24, size: 0x8, addend: 0x0, symName: __ZNSt3__112basic_stringIcNS_11char_traitsIcEENS_9allocatorIcEEEC1B7v160006Emc, symObjAddr: 0x3EF8, symBinAddr: 0x1000068A8, symSize: 0x3C }
  - { offsetInCU: 0xCD6C, offset: 0xCD6C, size: 0x8, addend: 0x0, symName: __ZNSt3__112basic_stringIcNS_11char_traitsIcEENS_9allocatorIcEEE4dataB7v160006Ev, symObjAddr: 0x3F34, symBinAddr: 0x1000068E4, symSize: 0x28 }
  - { offsetInCU: 0xCD92, offset: 0xCD92, size: 0x8, addend: 0x0, symName: __ZNSt3__18ios_base5widthB7v160006El, symObjAddr: 0x3F5C, symBinAddr: 0x10000690C, symSize: 0x2C }
  - { offsetInCU: 0xCDD8, offset: 0xCDD8, size: 0x8, addend: 0x0, symName: __ZNSt3__112basic_stringIcNS_11char_traitsIcEENS_9allocatorIcEEEC2B7v160006Emc, symObjAddr: 0x3F88, symBinAddr: 0x100006938, symSize: 0x54 }
  - { offsetInCU: 0xCE20, offset: 0xCE20, size: 0x8, addend: 0x0, symName: __ZNSt3__112basic_stringIcNS_11char_traitsIcEENS_9allocatorIcEEE13__get_pointerB7v160006Ev, symObjAddr: 0x3FF0, symBinAddr: 0x1000069A0, symSize: 0x54 }
  - { offsetInCU: 0xCE46, offset: 0xCE46, size: 0x8, addend: 0x0, symName: __ZNSt3__119ostreambuf_iteratorIcNS_11char_traitsIcEEEC2B7v160006ERNS_13basic_ostreamIcS2_EE, symObjAddr: 0x4044, symBinAddr: 0x1000069F4, symSize: 0x54 }
  - { offsetInCU: 0xCE7E, offset: 0xCE7E, size: 0x8, addend: 0x0, symName: __ZNKSt3__19basic_iosIcNS_11char_traitsIcEEE5rdbufB7v160006Ev, symObjAddr: 0x4098, symBinAddr: 0x100006A48, symSize: 0x24 }
  - { offsetInCU: 0xCEA5, offset: 0xCEA5, size: 0x8, addend: 0x0, symName: __ZNKSt3__18ios_base5rdbufB7v160006Ev, symObjAddr: 0x40BC, symBinAddr: 0x100006A6C, symSize: 0x18 }
  - { offsetInCU: 0xCECB, offset: 0xCECB, size: 0x8, addend: 0x0, symName: __ZNSt3__111char_traitsIcE11eq_int_typeEii, symObjAddr: 0x40D4, symBinAddr: 0x100006A84, symSize: 0x28 }
  - { offsetInCU: 0xCEFC, offset: 0xCEFC, size: 0x8, addend: 0x0, symName: __ZNSt3__111char_traitsIcE3eofEv, symObjAddr: 0x40FC, symBinAddr: 0x100006AAC, symSize: 0x8 }
  - { offsetInCU: 0xCF10, offset: 0xCF10, size: 0x8, addend: 0x0, symName: __ZNKSt3__19basic_iosIcNS_11char_traitsIcEEE5widenB7v160006Ec, symObjAddr: 0x4104, symBinAddr: 0x100006AB4, symSize: 0x84 }
  - { offsetInCU: 0xCF7D, offset: 0xCF7D, size: 0x8, addend: 0x0, symName: __ZNKSt3__15ctypeIcE5widenB7v160006Ec, symObjAddr: 0x41B4, symBinAddr: 0x100006B64, symSize: 0x38 }
  - { offsetInCU: 0xCFB2, offset: 0xCFB2, size: 0x8, addend: 0x0, symName: __ZNSt3__18ios_base8setstateB7v160006Ej, symObjAddr: 0x41EC, symBinAddr: 0x100006B9C, symSize: 0x34 }
  - { offsetInCU: 0xCFE8, offset: 0xCFE8, size: 0x8, addend: 0x0, symName: __ZNSt3__18__iom_t4IcEC1B7v160006Ec, symObjAddr: 0x4220, symBinAddr: 0x100006BD0, symSize: 0x34 }
  - { offsetInCU: 0xD020, offset: 0xD020, size: 0x8, addend: 0x0, symName: __ZNSt3__18__iom_t4IcEC2B7v160006Ec, symObjAddr: 0x4254, symBinAddr: 0x100006C04, symSize: 0x20 }
  - { offsetInCU: 0xD058, offset: 0xD058, size: 0x8, addend: 0x0, symName: __ZNSt3__19basic_iosIcNS_11char_traitsIcEEE4fillB7v160006Ec, symObjAddr: 0x4274, symBinAddr: 0x100006C24, symSize: 0x74 }
  - { offsetInCU: 0xFCFF, offset: 0x1CE8B, size: 0x8, addend: 0x0, symName: __ZNSt3__17getlineB7v160006IcNS_11char_traitsIcEENS_9allocatorIcEEEERNS_13basic_istreamIT_T0_EES9_RNS_12basic_stringIS6_S7_T1_EE, symObjAddr: 0x66C, symBinAddr: 0x1000072AC, symSize: 0x5C }
  - { offsetInCU: 0xFD57, offset: 0x1CEE3, size: 0x8, addend: 0x0, symName: '__ZNSt3__17find_ifB7v160006INS_11__wrap_iterIPKPN4sdds11WorkstationEEEZNS2_11LineManagerC1ERKNS_12basic_stringIcNS_11char_traitsIcEENS_9allocatorIcEEEERKNS_6vectorIS4_NSC_IS4_EEEEE3$_0EET_SN_SN_T0_', symObjAddr: 0x6F4, symBinAddr: 0x100007334, symSize: 0x78 }
  - { offsetInCU: 0xFDB2, offset: 0x1CF3E, size: 0x8, addend: 0x0, symName: '__ZNSt3__17find_ifB7v160006INS_11__wrap_iterIPKPN4sdds11WorkstationEEEZNS2_11LineManagerC1ERKNS_12basic_stringIcNS_11char_traitsIcEENS_9allocatorIcEEEERKNS_6vectorIS4_NSC_IS4_EEEEE3$_1EET_SN_SN_T0_', symObjAddr: 0x7CC, symBinAddr: 0x10000740C, symSize: 0x78 }
  - { offsetInCU: 0xFE18, offset: 0x1CFA4, size: 0x8, addend: 0x0, symName: __ZNSt3__1neB7v160006IPPN4sdds11WorkstationEEEbRKNS_11__wrap_iterIT_EES9_, symObjAddr: 0x100C, symBinAddr: 0x100007B80, symSize: 0x34 }
  - { offsetInCU: 0xFE5B, offset: 0x1CFE7, size: 0x8, addend: 0x0, symName: __ZNSt3__14swapB7v160006IN4sdds13CustomerOrderEEENS_9enable_ifIXaasr21is_move_constructibleIT_EE5valuesr18is_move_assignableIS4_EE5valueEvE4typeERS4_S7_, symObjAddr: 0x1078, symBinAddr: 0x100007BEC, symSize: 0x50 }
  - { offsetInCU: 0xFEAC, offset: 0x1D038, size: 0x8, addend: 0x0, symName: __ZNSt3__1neB7v160006IPKPN4sdds11WorkstationEEEbRKNS_11__wrap_iterIT_EESA_, symObjAddr: 0x11A8, symBinAddr: 0x100007D1C, symSize: 0x34 }
  - { offsetInCU: 0xFEEF, offset: 0x1D07B, size: 0x8, addend: 0x0, symName: '__ZNSt3__17find_ifB7v160006INS_11__wrap_iterIPKPN4sdds11WorkstationEEEZNS2_11LineManager18findLastInSequenceERKNS_6vectorIS4_NS_9allocatorIS4_EEEEE3$_2EET_SG_SG_T0_', symObjAddr: 0x11FC, symBinAddr: 0x100007D70, symSize: 0x74 }
  - { offsetInCU: 0xFF4A, offset: 0x1D0D6, size: 0x8, addend: 0x0, symName: '__ZNSt3__17find_ifB7v160006INS_11__wrap_iterIPKPN4sdds11WorkstationEEEZNS2_11LineManager15findPredecessorERKNS_6vectorIS4_NS_9allocatorIS4_EEEES7_E3$_3EET_SG_SG_T0_', symObjAddr: 0x133C, symBinAddr: 0x100007EB0, symSize: 0x78 }
  - { offsetInCU: 0xFFA5, offset: 0x1D131, size: 0x8, addend: 0x0, symName: __ZNSt3__1eqB7v160006IPKPN4sdds11WorkstationEEEbRKNS_11__wrap_iterIT_EESA_, symObjAddr: 0x13B4, symBinAddr: 0x100007F28, symSize: 0x48 }
  - { offsetInCU: 0xFFE8, offset: 0x1D174, size: 0x8, addend: 0x0, symName: __ZNSt3__1eqB7v160006IPPN4sdds11WorkstationEEEbRKNS_11__wrap_iterIT_EES9_, symObjAddr: 0x14A4, symBinAddr: 0x100007FFC, symSize: 0x48 }
  - { offsetInCU: 0x1003E, offset: 0x1D1CA, size: 0x8, addend: 0x0, symName: __ZNSt3__115make_error_codeB7v160006ENS_7io_errcE, symObjAddr: 0x1568, symBinAddr: 0x1000080C0, symSize: 0x40 }
  - { offsetInCU: 0x1006C, offset: 0x1D1F8, size: 0x8, addend: 0x0, symName: __ZNSt3__119__debug_db_insert_cB7v160006INS_6vectorIPN4sdds11WorkstationENS_9allocatorIS4_EEEEEEvPT_, symObjAddr: 0x1884, symBinAddr: 0x1000081FC, symSize: 0x10 }
  - { offsetInCU: 0x1009D, offset: 0x1D229, size: 0x8, addend: 0x0, symName: __ZNSt3__118__debug_db_erase_cB7v160006INS_6vectorIPN4sdds11WorkstationENS_9allocatorIS4_EEEEEEvPT_, symObjAddr: 0x1B48, symBinAddr: 0x1000084C0, symSize: 0x10 }
  - { offsetInCU: 0x100CE, offset: 0x1D25A, size: 0x8, addend: 0x0, symName: __ZNSt3__112__to_addressB7v160006IPN4sdds11WorkstationEEEPT_S5_, symObjAddr: 0x1C8C, symBinAddr: 0x100008604, symSize: 0x14 }
  - { offsetInCU: 0x10103, offset: 0x1D28F, size: 0x8, addend: 0x0, symName: __ZNSt3__17getlineB7v160006IcNS_11char_traitsIcEENS_9allocatorIcEEEERNS_13basic_istreamIT_T0_EES9_RNS_12basic_stringIS6_S7_T1_EES6_, symObjAddr: 0x22D4, symBinAddr: 0x100008958, symSize: 0x238 }
  - { offsetInCU: 0x101C1, offset: 0x1D34D, size: 0x8, addend: 0x0, symName: __ZNSt3__125__debug_db_invalidate_allB7v160006INS_12basic_stringIcNS_11char_traitsIcEENS_9allocatorIcEEEEEEvPT_, symObjAddr: 0x28C0, symBinAddr: 0x100008E20, symSize: 0x10 }
  - { offsetInCU: 0x103DF, offset: 0x1D56B, size: 0x8, addend: 0x0, symName: __ZNSt3__119__allocate_at_leastB7v160006INS_9allocatorIPN4sdds11WorkstationEEEEENS_19__allocation_resultINS_16allocator_traitsIT_E7pointerEEERS8_m, symObjAddr: 0x388C, symBinAddr: 0x1000097F8, symSize: 0x40 }
  - { offsetInCU: 0x10422, offset: 0x1D5AE, size: 0x8, addend: 0x0, symName: __ZNSt3__142__uninitialized_allocator_move_if_noexceptB7v160006INS_9allocatorIPN4sdds11WorkstationEEENS_16reverse_iteratorIPS4_EES8_S4_vEET1_RT_T0_SC_S9_, symObjAddr: 0x3B24, symBinAddr: 0x1000099AC, symSize: 0x78 }
  - { offsetInCU: 0x104A0, offset: 0x1D62C, size: 0x8, addend: 0x0, symName: __ZNSt3__14swapB7v160006IPPN4sdds11WorkstationEEENS_9enable_ifIXaasr21is_move_constructibleIT_EE5valuesr18is_move_assignableIS6_EE5valueEvE4typeERS6_S9_, symObjAddr: 0x3BE8, symBinAddr: 0x100009A70, symSize: 0x3C }
  - { offsetInCU: 0x104F1, offset: 0x1D67D, size: 0x8, addend: 0x0, symName: __ZNSt3__125__debug_db_invalidate_allB7v160006INS_6vectorIPN4sdds11WorkstationENS_9allocatorIS4_EEEEEEvPT_, symObjAddr: 0x3CD0, symBinAddr: 0x100009B58, symSize: 0x10 }
  - { offsetInCU: 0x10522, offset: 0x1D6AE, size: 0x8, addend: 0x0, symName: __ZNSt3__14moveB7v160006INS_16reverse_iteratorIPPN4sdds11WorkstationEEES6_EET0_T_S8_S7_, symObjAddr: 0x3CE0, symBinAddr: 0x100009B68, symSize: 0x78 }
  - { offsetInCU: 0x1057C, offset: 0x1D708, size: 0x8, addend: 0x0, symName: __ZNSt3__16__moveB7v160006INS_17_ClassicAlgPolicyENS_16reverse_iteratorIPPN4sdds11WorkstationEEES7_S7_EENS_4pairIT0_T2_EES9_T1_SA_, symObjAddr: 0x3D58, symBinAddr: 0x100009BE0, symSize: 0x64 }
  - { offsetInCU: 0x105E8, offset: 0x1D774, size: 0x8, addend: 0x0, symName: __ZNSt3__123__dispatch_copy_or_moveB7v160006INS_17_ClassicAlgPolicyENS_11__move_loopIS1_EENS_14__move_trivialENS_16reverse_iteratorIPPN4sdds11WorkstationEEESA_SA_EENS_4pairIT2_T4_EESC_T3_SD_, symObjAddr: 0x3DBC, symBinAddr: 0x100009C44, symSize: 0x64 }
  - { offsetInCU: 0x10666, offset: 0x1D7F2, size: 0x8, addend: 0x0, symName: __ZNSt3__121__unwrap_and_dispatchB7v160006INS_10__overloadINS_11__move_loopINS_17_ClassicAlgPolicyEEENS_14__move_trivialEEENS_16reverse_iteratorIPPN4sdds11WorkstationEEESC_SC_Li0EEENS_4pairIT0_T2_EESE_T1_SF_, symObjAddr: 0x3E20, symBinAddr: 0x100009CA8, symSize: 0x12C }
  - { offsetInCU: 0x106F7, offset: 0x1D883, size: 0x8, addend: 0x0, symName: __ZNSt3__114__unwrap_rangeB7v160006INS_16reverse_iteratorIPPN4sdds11WorkstationEEES6_EENS_4pairIT0_S8_EET_SA_, symObjAddr: 0x3F4C, symBinAddr: 0x100009DD4, symSize: 0x84 }
  - { offsetInCU: 0x10872, offset: 0x1D9FE, size: 0x8, addend: 0x0, symName: __ZNSt3__113__unwrap_iterB7v160006INS_16reverse_iteratorIPPN4sdds11WorkstationEEENS_18__unwrap_iter_implIS6_Lb0EEELi0EEEDTclsrT0_8__unwrapclsr3stdE7declvalIT_EEEESA_, symObjAddr: 0x4070, symBinAddr: 0x100009EF8, symSize: 0x44 }
  - { offsetInCU: 0x108B7, offset: 0x1DA43, size: 0x8, addend: 0x0, symName: __ZNSt3__19make_pairB7v160006INS_16reverse_iteratorIPPN4sdds11WorkstationEEES6_EENS_4pairINS_18__unwrap_ref_decayIT_E4typeENS8_IT0_E4typeEEEOS9_OSC_, symObjAddr: 0x40B4, symBinAddr: 0x100009F3C, symSize: 0x38 }
  - { offsetInCU: 0x10906, offset: 0x1DA92, size: 0x8, addend: 0x0, symName: __ZNSt3__114__rewrap_rangeB7v160006INS_16reverse_iteratorIPPN4sdds11WorkstationEEES6_EET_S7_T0_, symObjAddr: 0x40EC, symBinAddr: 0x100009F74, symSize: 0x5C }
  - { offsetInCU: 0x10952, offset: 0x1DADE, size: 0x8, addend: 0x0, symName: __ZNSt3__113__rewrap_iterB7v160006INS_16reverse_iteratorIPPN4sdds11WorkstationEEES6_NS_18__unwrap_iter_implIS6_Lb0EEEEET_S9_T0_, symObjAddr: 0x4148, symBinAddr: 0x100009FD0, symSize: 0x74 }
  - { offsetInCU: 0x109A7, offset: 0x1DB33, size: 0x8, addend: 0x0, symName: __ZNSt3__1neB7v160006IPPN4sdds11WorkstationES4_EEbRKNS_16reverse_iteratorIT_EERKNS5_IT0_EE, symObjAddr: 0x41BC, symBinAddr: 0x10000A044, symSize: 0x48 }
  - { offsetInCU: 0x10AA5, offset: 0x1DC31, size: 0x8, addend: 0x0, symName: __ZNSt3__112__to_addressB7v160006IN4sdds13CustomerOrderEEEPT_S4_, symObjAddr: 0x4E34, symBinAddr: 0x10000A554, symSize: 0x14 }
  - { offsetInCU: 0x1143D, offset: 0x1E5C9, size: 0x8, addend: 0x0, symName: __ZN4sdds11LineManager3runERNSt3__113basic_ostreamIcNS1_11char_traitsIcEEEE, symObjAddr: 0xB20, symBinAddr: 0x100007760, symSize: 0x294 }
  - { offsetInCU: 0x11463, offset: 0x1E5EF, size: 0x8, addend: 0x0, symName: __ZZN4sdds11LineManager3runERNSt3__113basic_ostreamIcNS1_11char_traitsIcEEEEE9iteration, symObjAddr: 0x56338, symBinAddr: 0x100018010, symSize: 0x0 }
  - { offsetInCU: 0x11A59, offset: 0x1EBE5, size: 0x8, addend: 0x0, symName: __ZNSt3__16vectorIPN4sdds11WorkstationENS_9allocatorIS3_EEE26__swap_out_circular_bufferERNS_14__split_bufferIS3_RS5_EE, symObjAddr: 0x32F0, symBinAddr: 0x100009490, symSize: 0x118 }
  - { offsetInCU: 0x13915, offset: 0x20AA1, size: 0x8, addend: 0x0, symName: __ZN4sdds11LineManagerC2ERKNSt3__112basic_stringIcNS1_11char_traitsIcEENS1_9allocatorIcEEEERKNS1_6vectorIPNS_11WorkstationENS5_ISC_EEEE, symObjAddr: 0x0, symBinAddr: 0x100006C98, symSize: 0x414 }
  - { offsetInCU: 0x139F9, offset: 0x20B85, size: 0x8, addend: 0x0, symName: __ZNSt3__16vectorIPN4sdds11WorkstationENS_9allocatorIS3_EEEC1B7v160006Ev, symObjAddr: 0x414, symBinAddr: 0x1000070AC, symSize: 0x2C }
  - { offsetInCU: 0x13B2A, offset: 0x20CB6, size: 0x8, addend: 0x0, symName: __ZNSt3__114basic_ifstreamIcNS_11char_traitsIcEEEC1ERKNS_12basic_stringIcS2_NS_9allocatorIcEEEEj, symObjAddr: 0x440, symBinAddr: 0x1000070D8, symSize: 0x16C }
  - { offsetInCU: 0x13B74, offset: 0x20D00, size: 0x8, addend: 0x0, symName: __ZNKSt3__114basic_ifstreamIcNS_11char_traitsIcEEE7is_openEv, symObjAddr: 0x5AC, symBinAddr: 0x100007244, symSize: 0x2C }
  - { offsetInCU: 0x13BA0, offset: 0x20D2C, size: 0x8, addend: 0x0, symName: __ZNSt3__110error_codeC1B7v160006INS_7io_errcEEET_PNS_9enable_ifIXsr18is_error_code_enumIS3_EE5valueEvE4typeE, symObjAddr: 0x5D8, symBinAddr: 0x100007270, symSize: 0x3C }
  - { offsetInCU: 0x13BEE, offset: 0x20D7A, size: 0x8, addend: 0x0, symName: __ZNKSt3__19basic_iosIcNS_11char_traitsIcEEEcvbB7v160006Ev, symObjAddr: 0x6C8, symBinAddr: 0x100007308, symSize: 0x2C }
  - { offsetInCU: 0x13C14, offset: 0x20DA0, size: 0x8, addend: 0x0, symName: __ZNKSt3__16vectorIPN4sdds11WorkstationENS_9allocatorIS3_EEE5beginB7v160006Ev, symObjAddr: 0x76C, symBinAddr: 0x1000073AC, symSize: 0x30 }
  - { offsetInCU: 0x13C3B, offset: 0x20DC7, size: 0x8, addend: 0x0, symName: __ZNKSt3__16vectorIPN4sdds11WorkstationENS_9allocatorIS3_EEE3endB7v160006Ev, symObjAddr: 0x79C, symBinAddr: 0x1000073DC, symSize: 0x30 }
  - { offsetInCU: 0x13C62, offset: 0x20DEE, size: 0x8, addend: 0x0, symName: __ZNKSt3__111__wrap_iterIPKPN4sdds11WorkstationEEdeB7v160006Ev, symObjAddr: 0x844, symBinAddr: 0x100007484, symSize: 0x18 }
  - { offsetInCU: 0x13C88, offset: 0x20E14, size: 0x8, addend: 0x0, symName: __ZNSt3__16vectorIPN4sdds11WorkstationENS_9allocatorIS3_EEE9push_backB7v160006ERKS3_, symObjAddr: 0x85C, symBinAddr: 0x10000749C, symSize: 0x6C }
  - { offsetInCU: 0x13CBE, offset: 0x20E4A, size: 0x8, addend: 0x0, symName: __ZNKSt3__16vectorIPN4sdds11WorkstationENS_9allocatorIS3_EEE5emptyB7v160006Ev, symObjAddr: 0x8C8, symBinAddr: 0x100007508, symSize: 0x28 }
  - { offsetInCU: 0x13CE4, offset: 0x20E70, size: 0x8, addend: 0x0, symName: __ZN4sdds11LineManager18findLastInSequenceERKNSt3__16vectorIPNS_11WorkstationENS1_9allocatorIS4_EEEE, symObjAddr: 0x8F0, symBinAddr: 0x100007530, symSize: 0xAC }
  - { offsetInCU: 0x13D47, offset: 0x20ED3, size: 0x8, addend: 0x0, symName: __ZNKSt3__15dequeIN4sdds13CustomerOrderENS_9allocatorIS2_EEE4sizeB7v160006Ev, symObjAddr: 0x99C, symBinAddr: 0x1000075DC, symSize: 0x28 }
  - { offsetInCU: 0x13D72, offset: 0x20EFE, size: 0x8, addend: 0x0, symName: __ZNSt3__114basic_ifstreamIcNS_11char_traitsIcEEED1Ev, symObjAddr: 0x9C4, symBinAddr: 0x100007604, symSize: 0x40 }
  - { offsetInCU: 0x13D9F, offset: 0x20F2B, size: 0x8, addend: 0x0, symName: __ZNSt3__16vectorIPN4sdds11WorkstationENS_9allocatorIS3_EEED1B7v160006Ev, symObjAddr: 0xA04, symBinAddr: 0x100007644, symSize: 0x2C }
  - { offsetInCU: 0x13DC9, offset: 0x20F55, size: 0x8, addend: 0x0, symName: __ZN4sdds11LineManagerC1ERKNSt3__112basic_stringIcNS1_11char_traitsIcEENS1_9allocatorIcEEEERKNS1_6vectorIPNS_11WorkstationENS5_ISC_EEEE, symObjAddr: 0xA30, symBinAddr: 0x100007670, symSize: 0x3C }
  - { offsetInCU: 0x13E67, offset: 0x20FF3, size: 0x8, addend: 0x0, symName: __ZN4sdds11LineManager15reorderStationsEv, symObjAddr: 0xA6C, symBinAddr: 0x1000076AC, symSize: 0x68 }
  - { offsetInCU: 0x13E9D, offset: 0x21029, size: 0x8, addend: 0x0, symName: __ZNSt3__16vectorIPN4sdds11WorkstationENS_9allocatorIS3_EEE5clearB7v160006Ev, symObjAddr: 0xAD4, symBinAddr: 0x100007714, symSize: 0x4C }
  - { offsetInCU: 0x13ED2, offset: 0x2105E, size: 0x8, addend: 0x0, symName: __ZNKSt3__15dequeIN4sdds13CustomerOrderENS_9allocatorIS2_EEE5emptyB7v160006Ev, symObjAddr: 0xE80, symBinAddr: 0x1000079F4, symSize: 0x30 }
  - { offsetInCU: 0x13EF8, offset: 0x21084, size: 0x8, addend: 0x0, symName: __ZNSt3__15dequeIN4sdds13CustomerOrderENS_9allocatorIS2_EEE5frontEv, symObjAddr: 0xEB0, symBinAddr: 0x100007A24, symSize: 0x50 }
  - { offsetInCU: 0x13F1F, offset: 0x210AB, size: 0x8, addend: 0x0, symName: __ZNSt3__15dequeIN4sdds13CustomerOrderENS_9allocatorIS2_EEE9pop_frontEv, symObjAddr: 0xF00, symBinAddr: 0x100007A74, symSize: 0xAC }
  - { offsetInCU: 0x13F55, offset: 0x210E1, size: 0x8, addend: 0x0, symName: __ZNSt3__16vectorIPN4sdds11WorkstationENS_9allocatorIS3_EEE5beginB7v160006Ev, symObjAddr: 0xFAC, symBinAddr: 0x100007B20, symSize: 0x30 }
  - { offsetInCU: 0x13F7C, offset: 0x21108, size: 0x8, addend: 0x0, symName: __ZNSt3__16vectorIPN4sdds11WorkstationENS_9allocatorIS3_EEE3endB7v160006Ev, symObjAddr: 0xFDC, symBinAddr: 0x100007B50, symSize: 0x30 }
  - { offsetInCU: 0x13FA3, offset: 0x2112F, size: 0x8, addend: 0x0, symName: __ZNKSt3__111__wrap_iterIPPN4sdds11WorkstationEEdeB7v160006Ev, symObjAddr: 0x1040, symBinAddr: 0x100007BB4, symSize: 0x18 }
  - { offsetInCU: 0x13FC9, offset: 0x21155, size: 0x8, addend: 0x0, symName: __ZNSt3__111__wrap_iterIPPN4sdds11WorkstationEEppB7v160006Ev, symObjAddr: 0x1058, symBinAddr: 0x100007BCC, symSize: 0x20 }
  - { offsetInCU: 0x13FEF, offset: 0x2117B, size: 0x8, addend: 0x0, symName: __ZNSt3__15dequeIN4sdds13CustomerOrderENS_9allocatorIS2_EEEixEm, symObjAddr: 0x10C8, symBinAddr: 0x100007C3C, symSize: 0x5C }
  - { offsetInCU: 0x14034, offset: 0x211C0, size: 0x8, addend: 0x0, symName: __ZNK4sdds11LineManager7displayERNSt3__113basic_ostreamIcNS1_11char_traitsIcEEEE, symObjAddr: 0x1124, symBinAddr: 0x100007C98, symSize: 0x84 }
  - { offsetInCU: 0x140BB, offset: 0x21247, size: 0x8, addend: 0x0, symName: __ZNSt3__111__wrap_iterIPKPN4sdds11WorkstationEEppB7v160006Ev, symObjAddr: 0x11DC, symBinAddr: 0x100007D50, symSize: 0x20 }
  - { offsetInCU: 0x140E1, offset: 0x2126D, size: 0x8, addend: 0x0, symName: __ZN4sdds11LineManager15findPredecessorERKNSt3__16vectorIPNS_11WorkstationENS1_9allocatorIS4_EEEENS1_11__wrap_iterIPKS4_EE, symObjAddr: 0x1270, symBinAddr: 0x100007DE4, symSize: 0xCC }
  - { offsetInCU: 0x1416C, offset: 0x212F8, size: 0x8, addend: 0x0, symName: __ZNSt3__114basic_ifstreamIcNS_11char_traitsIcEEED2Ev, symObjAddr: 0x1418, symBinAddr: 0x100007F70, symSize: 0x64 }
  - { offsetInCU: 0x141A6, offset: 0x21332, size: 0x8, addend: 0x0, symName: __ZTv0_n24_NSt3__114basic_ifstreamIcNS_11char_traitsIcEEED1Ev, symObjAddr: 0x147C, symBinAddr: 0x100007FD4, symSize: 0x28 }
  - { offsetInCU: 0x141BD, offset: 0x21349, size: 0x8, addend: 0x0, symName: __ZNKSt3__111__wrap_iterIPPN4sdds11WorkstationEE4baseB7v160006Ev, symObjAddr: 0x14EC, symBinAddr: 0x100008044, symSize: 0x18 }
  - { offsetInCU: 0x141E3, offset: 0x2136F, size: 0x8, addend: 0x0, symName: __ZNKSt3__111__wrap_iterIPKPN4sdds11WorkstationEE4baseB7v160006Ev, symObjAddr: 0x1504, symBinAddr: 0x10000805C, symSize: 0x18 }
  - { offsetInCU: 0x14209, offset: 0x21395, size: 0x8, addend: 0x0, symName: __ZNSt3__110error_codeC2B7v160006INS_7io_errcEEET_PNS_9enable_ifIXsr18is_error_code_enumIS3_EE5valueEvE4typeE, symObjAddr: 0x151C, symBinAddr: 0x100008074, symSize: 0x4C }
  - { offsetInCU: 0x1426D, offset: 0x213F9, size: 0x8, addend: 0x0, symName: __ZNSt3__110error_codeC1B7v160006EiRKNS_14error_categoryE, symObjAddr: 0x15A8, symBinAddr: 0x100008100, symSize: 0x3C }
  - { offsetInCU: 0x142B5, offset: 0x21441, size: 0x8, addend: 0x0, symName: __ZNSt3__110error_codeC2B7v160006EiRKNS_14error_categoryE, symObjAddr: 0x15E4, symBinAddr: 0x10000813C, symSize: 0x2C }
  - { offsetInCU: 0x14302, offset: 0x2148E, size: 0x8, addend: 0x0, symName: __ZNSt3__16vectorIPN4sdds11WorkstationENS_9allocatorIS3_EEEC2B7v160006Ev, symObjAddr: 0x17F0, symBinAddr: 0x100008168, symSize: 0x58 }
  - { offsetInCU: 0x14331, offset: 0x214BD, size: 0x8, addend: 0x0, symName: __ZNSt3__117__compressed_pairIPPN4sdds11WorkstationENS_9allocatorIS3_EEEC1B7v160006IDnNS_18__default_init_tagEEEOT_OT0_, symObjAddr: 0x1848, symBinAddr: 0x1000081C0, symSize: 0x3C }
  - { offsetInCU: 0x14389, offset: 0x21515, size: 0x8, addend: 0x0, symName: __ZNSt3__117__compressed_pairIPPN4sdds11WorkstationENS_9allocatorIS3_EEEC2B7v160006IDnNS_18__default_init_tagEEEOT_OT0_, symObjAddr: 0x1894, symBinAddr: 0x10000820C, symSize: 0x40 }
  - { offsetInCU: 0x143E1, offset: 0x2156D, size: 0x8, addend: 0x0, symName: __ZNSt3__122__compressed_pair_elemIPPN4sdds11WorkstationELi0ELb0EEC2B7v160006IDnvEEOT_, symObjAddr: 0x18D4, symBinAddr: 0x10000824C, symSize: 0x1C }
  - { offsetInCU: 0x14423, offset: 0x215AF, size: 0x8, addend: 0x0, symName: __ZNSt3__122__compressed_pair_elemINS_9allocatorIPN4sdds11WorkstationEEELi1ELb1EEC2B7v160006ENS_18__default_init_tagE, symObjAddr: 0x18F0, symBinAddr: 0x100008268, symSize: 0x2C }
  - { offsetInCU: 0x14458, offset: 0x215E4, size: 0x8, addend: 0x0, symName: __ZNSt3__19allocatorIPN4sdds11WorkstationEEC2B7v160006Ev, symObjAddr: 0x191C, symBinAddr: 0x100008294, symSize: 0x2C }
  - { offsetInCU: 0x14482, offset: 0x2160E, size: 0x8, addend: 0x0, symName: __ZNSt3__116__non_trivial_ifILb1ENS_9allocatorIPN4sdds11WorkstationEEEEC2B7v160006Ev, symObjAddr: 0x1948, symBinAddr: 0x1000082C0, symSize: 0x14 }
  - { offsetInCU: 0x144AC, offset: 0x21638, size: 0x8, addend: 0x0, symName: __ZNSt3__16vectorIPN4sdds11WorkstationENS_9allocatorIS3_EEED2B7v160006Ev, symObjAddr: 0x195C, symBinAddr: 0x1000082D4, symSize: 0x44 }
  - { offsetInCU: 0x144D6, offset: 0x21662, size: 0x8, addend: 0x0, symName: __ZNSt3__16vectorIPN4sdds11WorkstationENS_9allocatorIS3_EEE16__destroy_vectorC1ERS6_, symObjAddr: 0x19A0, symBinAddr: 0x100008318, symSize: 0x34 }
  - { offsetInCU: 0x1450F, offset: 0x2169B, size: 0x8, addend: 0x0, symName: __ZNSt3__16vectorIPN4sdds11WorkstationENS_9allocatorIS3_EEE16__destroy_vectorclB7v160006Ev, symObjAddr: 0x19D4, symBinAddr: 0x10000834C, symSize: 0x9C }
  - { offsetInCU: 0x14535, offset: 0x216C1, size: 0x8, addend: 0x0, symName: __ZNSt3__16vectorIPN4sdds11WorkstationENS_9allocatorIS3_EEE16__destroy_vectorC2ERS6_, symObjAddr: 0x1A70, symBinAddr: 0x1000083E8, symSize: 0x20 }
  - { offsetInCU: 0x1456E, offset: 0x216FA, size: 0x8, addend: 0x0, symName: __ZNKSt3__16vectorIPN4sdds11WorkstationENS_9allocatorIS3_EEE17__annotate_deleteB7v160006Ev, symObjAddr: 0x1A90, symBinAddr: 0x100008408, symSize: 0xB8 }
  - { offsetInCU: 0x14594, offset: 0x21720, size: 0x8, addend: 0x0, symName: __ZNSt3__16vectorIPN4sdds11WorkstationENS_9allocatorIS3_EEE7__clearB7v160006Ev, symObjAddr: 0x1B58, symBinAddr: 0x1000084D0, symSize: 0x28 }
  - { offsetInCU: 0x145BA, offset: 0x21746, size: 0x8, addend: 0x0, symName: __ZNSt3__116allocator_traitsINS_9allocatorIPN4sdds11WorkstationEEEE10deallocateB7v160006ERS5_PS4_m, symObjAddr: 0x1B80, symBinAddr: 0x1000084F8, symSize: 0x34 }
  - { offsetInCU: 0x145FC, offset: 0x21788, size: 0x8, addend: 0x0, symName: __ZNSt3__16vectorIPN4sdds11WorkstationENS_9allocatorIS3_EEE7__allocB7v160006Ev, symObjAddr: 0x1BB4, symBinAddr: 0x10000852C, symSize: 0x28 }
  - { offsetInCU: 0x14622, offset: 0x217AE, size: 0x8, addend: 0x0, symName: __ZNKSt3__16vectorIPN4sdds11WorkstationENS_9allocatorIS3_EEE8capacityB7v160006Ev, symObjAddr: 0x1BDC, symBinAddr: 0x100008554, symSize: 0x40 }
  - { offsetInCU: 0x14648, offset: 0x217D4, size: 0x8, addend: 0x0, symName: __ZNKSt3__16vectorIPN4sdds11WorkstationENS_9allocatorIS3_EEE31__annotate_contiguous_containerB7v160006EPKvS8_S8_S8_, symObjAddr: 0x1C1C, symBinAddr: 0x100008594, symSize: 0x20 }
  - { offsetInCU: 0x1469E, offset: 0x2182A, size: 0x8, addend: 0x0, symName: __ZNKSt3__16vectorIPN4sdds11WorkstationENS_9allocatorIS3_EEE4dataB7v160006Ev, symObjAddr: 0x1C3C, symBinAddr: 0x1000085B4, symSize: 0x28 }
  - { offsetInCU: 0x146C4, offset: 0x21850, size: 0x8, addend: 0x0, symName: __ZNKSt3__16vectorIPN4sdds11WorkstationENS_9allocatorIS3_EEE4sizeB7v160006Ev, symObjAddr: 0x1C64, symBinAddr: 0x1000085DC, symSize: 0x28 }
  - { offsetInCU: 0x146EA, offset: 0x21876, size: 0x8, addend: 0x0, symName: __ZNSt3__16vectorIPN4sdds11WorkstationENS_9allocatorIS3_EEE22__base_destruct_at_endB7v160006EPS3_, symObjAddr: 0x1CA0, symBinAddr: 0x100008618, symSize: 0x8C }
  - { offsetInCU: 0x1472E, offset: 0x218BA, size: 0x8, addend: 0x0, symName: __ZNSt3__116allocator_traitsINS_9allocatorIPN4sdds11WorkstationEEEE7destroyB7v160006IS4_vEEvRS5_PT_, symObjAddr: 0x1D2C, symBinAddr: 0x1000086A4, symSize: 0x2C }
  - { offsetInCU: 0x1476B, offset: 0x218F7, size: 0x8, addend: 0x0, symName: __ZNSt3__19allocatorIPN4sdds11WorkstationEE7destroyB7v160006EPS3_, symObjAddr: 0x1D58, symBinAddr: 0x1000086D0, symSize: 0x14 }
  - { offsetInCU: 0x1479F, offset: 0x2192B, size: 0x8, addend: 0x0, symName: __ZNSt3__19allocatorIPN4sdds11WorkstationEE10deallocateB7v160006EPS3_m, symObjAddr: 0x1D6C, symBinAddr: 0x1000086E4, symSize: 0x40 }
  - { offsetInCU: 0x147E1, offset: 0x2196D, size: 0x8, addend: 0x0, symName: __ZNSt3__117__compressed_pairIPPN4sdds11WorkstationENS_9allocatorIS3_EEE6secondB7v160006Ev, symObjAddr: 0x1ED4, symBinAddr: 0x100008724, symSize: 0x24 }
  - { offsetInCU: 0x14807, offset: 0x21993, size: 0x8, addend: 0x0, symName: __ZNSt3__122__compressed_pair_elemINS_9allocatorIPN4sdds11WorkstationEEELi1ELb1EE5__getB7v160006Ev, symObjAddr: 0x1EF8, symBinAddr: 0x100008748, symSize: 0x14 }
  - { offsetInCU: 0x1482D, offset: 0x219B9, size: 0x8, addend: 0x0, symName: __ZNKSt3__16vectorIPN4sdds11WorkstationENS_9allocatorIS3_EEE9__end_capB7v160006Ev, symObjAddr: 0x1F0C, symBinAddr: 0x10000875C, symSize: 0x28 }
  - { offsetInCU: 0x14853, offset: 0x219DF, size: 0x8, addend: 0x0, symName: __ZNKSt3__117__compressed_pairIPPN4sdds11WorkstationENS_9allocatorIS3_EEE5firstB7v160006Ev, symObjAddr: 0x1F34, symBinAddr: 0x100008784, symSize: 0x24 }
  - { offsetInCU: 0x14879, offset: 0x21A05, size: 0x8, addend: 0x0, symName: __ZNKSt3__122__compressed_pair_elemIPPN4sdds11WorkstationELi0ELb0EE5__getB7v160006Ev, symObjAddr: 0x1F58, symBinAddr: 0x1000087A8, symSize: 0x14 }
  - { offsetInCU: 0x1489F, offset: 0x21A2B, size: 0x8, addend: 0x0, symName: __ZNSt3__19basic_iosIcNS_11char_traitsIcEEEC2B7v160006Ev, symObjAddr: 0x1F6C, symBinAddr: 0x1000087BC, symSize: 0x44 }
  - { offsetInCU: 0x148C9, offset: 0x21A55, size: 0x8, addend: 0x0, symName: __ZNSt3__113basic_istreamIcNS_11char_traitsIcEEEC2B7v160006EPNS_15basic_streambufIcS2_EE, symObjAddr: 0x1FB0, symBinAddr: 0x100008800, symSize: 0x64 }
  - { offsetInCU: 0x1490E, offset: 0x21A9A, size: 0x8, addend: 0x0, symName: __ZNSt3__113basic_filebufIcNS_11char_traitsIcEEE4openERKNS_12basic_stringIcS2_NS_9allocatorIcEEEEj, symObjAddr: 0x2014, symBinAddr: 0x100008864, symSize: 0x44 }
  - { offsetInCU: 0x14951, offset: 0x21ADD, size: 0x8, addend: 0x0, symName: __ZNSt3__18ios_baseC2B7v160006Ev, symObjAddr: 0x2084, symBinAddr: 0x1000088A8, symSize: 0x24 }
  - { offsetInCU: 0x1497B, offset: 0x21B07, size: 0x8, addend: 0x0, symName: __ZNSt3__19basic_iosIcNS_11char_traitsIcEEE4initB7v160006EPNS_15basic_streambufIcS2_EE, symObjAddr: 0x20A8, symBinAddr: 0x1000088CC, symSize: 0x44 }
  - { offsetInCU: 0x149B1, offset: 0x21B3D, size: 0x8, addend: 0x0, symName: __ZNKSt3__112basic_stringIcNS_11char_traitsIcEENS_9allocatorIcEEE5c_strB7v160006Ev, symObjAddr: 0x20F4, symBinAddr: 0x100008910, symSize: 0x24 }
  - { offsetInCU: 0x149D7, offset: 0x21B63, size: 0x8, addend: 0x0, symName: __ZNKSt3__113basic_filebufIcNS_11char_traitsIcEEE7is_openEv, symObjAddr: 0x22B0, symBinAddr: 0x100008934, symSize: 0x24 }
  - { offsetInCU: 0x14A1D, offset: 0x21BA9, size: 0x8, addend: 0x0, symName: __ZNKSt3__113basic_istreamIcNS_11char_traitsIcEEE6sentrycvbB7v160006Ev, symObjAddr: 0x2590, symBinAddr: 0x100008B90, symSize: 0x1C }
  - { offsetInCU: 0x14A43, offset: 0x21BCF, size: 0x8, addend: 0x0, symName: __ZNSt3__112basic_stringIcNS_11char_traitsIcEENS_9allocatorIcEEE5clearB7v160006Ev, symObjAddr: 0x25AC, symBinAddr: 0x100008BAC, symSize: 0x88 }
  - { offsetInCU: 0x14A6A, offset: 0x21BF6, size: 0x8, addend: 0x0, symName: __ZNSt3__115basic_streambufIcNS_11char_traitsIcEEE6sbumpcB7v160006Ev, symObjAddr: 0x2658, symBinAddr: 0x100008C34, symSize: 0x78 }
  - { offsetInCU: 0x14A90, offset: 0x21C1C, size: 0x8, addend: 0x0, symName: __ZNSt3__111char_traitsIcE12to_char_typeEi, symObjAddr: 0x26F8, symBinAddr: 0x100008CAC, symSize: 0x18 }
  - { offsetInCU: 0x14AB3, offset: 0x21C3F, size: 0x8, addend: 0x0, symName: __ZNSt3__111char_traitsIcE2eqEcc, symObjAddr: 0x2710, symBinAddr: 0x100008CC4, symSize: 0x28 }
  - { offsetInCU: 0x14AE4, offset: 0x21C70, size: 0x8, addend: 0x0, symName: __ZNKSt3__112basic_stringIcNS_11char_traitsIcEENS_9allocatorIcEEE8max_sizeB7v160006Ev, symObjAddr: 0x278C, symBinAddr: 0x100008CEC, symSize: 0xAC }
  - { offsetInCU: 0x14B36, offset: 0x21CC2, size: 0x8, addend: 0x0, symName: __ZNSt3__18ios_base18__setstate_nothrowB7v160006Ej, symObjAddr: 0x2838, symBinAddr: 0x100008D98, symSize: 0x64 }
  - { offsetInCU: 0x14B6B, offset: 0x21CF7, size: 0x8, addend: 0x0, symName: __ZNKSt3__19basic_iosIcNS_11char_traitsIcEEE10exceptionsB7v160006Ev, symObjAddr: 0x289C, symBinAddr: 0x100008DFC, symSize: 0x24 }
  - { offsetInCU: 0x14B91, offset: 0x21D1D, size: 0x8, addend: 0x0, symName: __ZNSt3__112basic_stringIcNS_11char_traitsIcEENS_9allocatorIcEEE15__set_long_sizeB7v160006Em, symObjAddr: 0x291C, symBinAddr: 0x100008E30, symSize: 0x38 }
  - { offsetInCU: 0x14BC6, offset: 0x21D52, size: 0x8, addend: 0x0, symName: __ZNSt3__111char_traitsIcE11to_int_typeEc, symObjAddr: 0x2A20, symBinAddr: 0x100008E68, symSize: 0x14 }
  - { offsetInCU: 0x14BF3, offset: 0x21D7F, size: 0x8, addend: 0x0, symName: __ZNSt3__116allocator_traitsINS_9allocatorIcEEE8max_sizeB7v160006IS2_vEEmRKS2_, symObjAddr: 0x2A90, symBinAddr: 0x100008E7C, symSize: 0x24 }
  - { offsetInCU: 0x14C21, offset: 0x21DAD, size: 0x8, addend: 0x0, symName: __ZNKSt3__112basic_stringIcNS_11char_traitsIcEENS_9allocatorIcEEE7__allocB7v160006Ev, symObjAddr: 0x2AB4, symBinAddr: 0x100008EA0, symSize: 0x24 }
  - { offsetInCU: 0x14C47, offset: 0x21DD3, size: 0x8, addend: 0x0, symName: __ZNSt3__114numeric_limitsImE3maxB7v160006Ev, symObjAddr: 0x2AD8, symBinAddr: 0x100008EC4, symSize: 0x14 }
  - { offsetInCU: 0x14C5B, offset: 0x21DE7, size: 0x8, addend: 0x0, symName: __ZNKSt3__19allocatorIcE8max_sizeB7v160006Ev, symObjAddr: 0x2AEC, symBinAddr: 0x100008ED8, symSize: 0x14 }
  - { offsetInCU: 0x14C81, offset: 0x21E0D, size: 0x8, addend: 0x0, symName: __ZNKSt3__117__compressed_pairINS_12basic_stringIcNS_11char_traitsIcEENS_9allocatorIcEEE5__repES5_E6secondB7v160006Ev, symObjAddr: 0x2B00, symBinAddr: 0x100008EEC, symSize: 0x24 }
  - { offsetInCU: 0x14CA7, offset: 0x21E33, size: 0x8, addend: 0x0, symName: __ZNKSt3__122__compressed_pair_elemINS_9allocatorIcEELi1ELb1EE5__getB7v160006Ev, symObjAddr: 0x2B24, symBinAddr: 0x100008F10, symSize: 0x14 }
  - { offsetInCU: 0x14CCD, offset: 0x21E59, size: 0x8, addend: 0x0, symName: __ZNSt3__123__libcpp_numeric_limitsImLb1EE3maxB7v160006Ev, symObjAddr: 0x2B38, symBinAddr: 0x100008F24, symSize: 0x8 }
  - { offsetInCU: 0x14CE1, offset: 0x21E6D, size: 0x8, addend: 0x0, symName: __ZNKSt3__18ios_base10exceptionsB7v160006Ev, symObjAddr: 0x2B40, symBinAddr: 0x100008F2C, symSize: 0x18 }
  - { offsetInCU: 0x14D09, offset: 0x21E95, size: 0x8, addend: 0x0, symName: __ZNKSt3__19basic_iosIcNS_11char_traitsIcEEE4failB7v160006Ev, symObjAddr: 0x2BBC, symBinAddr: 0x100008F44, symSize: 0x28 }
  - { offsetInCU: 0x14D2F, offset: 0x21EBB, size: 0x8, addend: 0x0, symName: __ZNKSt3__18ios_base4failB7v160006Ev, symObjAddr: 0x2BE4, symBinAddr: 0x100008F6C, symSize: 0x28 }
  - { offsetInCU: 0x14D57, offset: 0x21EE3, size: 0x8, addend: 0x0, symName: __ZNKSt3__16vectorIPN4sdds11WorkstationENS_9allocatorIS3_EEE11__make_iterB7v160006EPKS3_, symObjAddr: 0x2C0C, symBinAddr: 0x100008F94, symSize: 0x34 }
  - { offsetInCU: 0x14D8C, offset: 0x21F18, size: 0x8, addend: 0x0, symName: __ZNSt3__111__wrap_iterIPKPN4sdds11WorkstationEEC1B7v160006EPKvS5_, symObjAddr: 0x2C40, symBinAddr: 0x100008FC8, symSize: 0x3C }
  - { offsetInCU: 0x14DD2, offset: 0x21F5E, size: 0x8, addend: 0x0, symName: __ZNSt3__111__wrap_iterIPKPN4sdds11WorkstationEEC2B7v160006EPKvS5_, symObjAddr: 0x2C7C, symBinAddr: 0x100009004, symSize: 0x24 }
  - { offsetInCU: 0x14E2C, offset: 0x21FB8, size: 0x8, addend: 0x0, symName: '__ZZN4sdds11LineManagerC1ERKNSt3__112basic_stringIcNS1_11char_traitsIcEENS1_9allocatorIcEEEERKNS1_6vectorIPNS_11WorkstationENS5_ISC_EEEEENK3$_0clEPKSB_', symObjAddr: 0x2CA0, symBinAddr: 0x100009028, symSize: 0x40 }
  - { offsetInCU: 0x14E6E, offset: 0x21FFA, size: 0x8, addend: 0x0, symName: '__ZZN4sdds11LineManagerC1ERKNSt3__112basic_stringIcNS1_11char_traitsIcEENS1_9allocatorIcEEEERKNS1_6vectorIPNS_11WorkstationENS5_ISC_EEEEENK3$_1clEPKSB_', symObjAddr: 0x2EC8, symBinAddr: 0x100009068, symSize: 0x40 }
  - { offsetInCU: 0x14EA6, offset: 0x22032, size: 0x8, addend: 0x0, symName: __ZNSt3__16vectorIPN4sdds11WorkstationENS_9allocatorIS3_EEE9__end_capB7v160006Ev, symObjAddr: 0x2F08, symBinAddr: 0x1000090A8, symSize: 0x28 }
  - { offsetInCU: 0x14ECC, offset: 0x22058, size: 0x8, addend: 0x0, symName: __ZNSt3__16vectorIPN4sdds11WorkstationENS_9allocatorIS3_EEE22__construct_one_at_endB7v160006IJRKS3_EEEvDpOT_, symObjAddr: 0x2F30, symBinAddr: 0x1000090D0, symSize: 0x90 }
  - { offsetInCU: 0x14F1B, offset: 0x220A7, size: 0x8, addend: 0x0, symName: __ZNSt3__16vectorIPN4sdds11WorkstationENS_9allocatorIS3_EEE21__push_back_slow_pathIRKS3_EEvOT_, symObjAddr: 0x2FC0, symBinAddr: 0x100009160, symSize: 0xD8 }
  - { offsetInCU: 0x14F78, offset: 0x22104, size: 0x8, addend: 0x0, symName: __ZNSt3__117__compressed_pairIPPN4sdds11WorkstationENS_9allocatorIS3_EEE5firstB7v160006Ev, symObjAddr: 0x3098, symBinAddr: 0x100009238, symSize: 0x24 }
  - { offsetInCU: 0x14F9E, offset: 0x2212A, size: 0x8, addend: 0x0, symName: __ZNSt3__122__compressed_pair_elemIPPN4sdds11WorkstationELi0ELb0EE5__getB7v160006Ev, symObjAddr: 0x30BC, symBinAddr: 0x10000925C, symSize: 0x14 }
  - { offsetInCU: 0x14FDD, offset: 0x22169, size: 0x8, addend: 0x0, symName: __ZNSt3__16vectorIPN4sdds11WorkstationENS_9allocatorIS3_EEE21_ConstructTransactionC1B7v160006ERS6_m, symObjAddr: 0x30D0, symBinAddr: 0x100009270, symSize: 0x3C }
  - { offsetInCU: 0x15025, offset: 0x221B1, size: 0x8, addend: 0x0, symName: __ZNSt3__116allocator_traitsINS_9allocatorIPN4sdds11WorkstationEEEE9constructB7v160006IS4_JRKS4_EvEEvRS5_PT_DpOT0_, symObjAddr: 0x310C, symBinAddr: 0x1000092AC, symSize: 0x34 }
  - { offsetInCU: 0x1507C, offset: 0x22208, size: 0x8, addend: 0x0, symName: __ZNSt3__16vectorIPN4sdds11WorkstationENS_9allocatorIS3_EEE21_ConstructTransactionD1B7v160006Ev, symObjAddr: 0x3140, symBinAddr: 0x1000092E0, symSize: 0x2C }
  - { offsetInCU: 0x150A6, offset: 0x22232, size: 0x8, addend: 0x0, symName: __ZNSt3__16vectorIPN4sdds11WorkstationENS_9allocatorIS3_EEE21_ConstructTransactionC2B7v160006ERS6_m, symObjAddr: 0x316C, symBinAddr: 0x10000930C, symSize: 0x44 }
  - { offsetInCU: 0x150EE, offset: 0x2227A, size: 0x8, addend: 0x0, symName: __ZNSt3__19allocatorIPN4sdds11WorkstationEE9constructB7v160006IS3_JRKS3_EEEvPT_DpOT0_, symObjAddr: 0x31B0, symBinAddr: 0x100009350, symSize: 0x28 }
  - { offsetInCU: 0x15144, offset: 0x222D0, size: 0x8, addend: 0x0, symName: __ZNSt3__16vectorIPN4sdds11WorkstationENS_9allocatorIS3_EEE21_ConstructTransactionD2B7v160006Ev, symObjAddr: 0x31D8, symBinAddr: 0x100009378, symSize: 0x20 }
  - { offsetInCU: 0x1516E, offset: 0x222FA, size: 0x8, addend: 0x0, symName: __ZNKSt3__16vectorIPN4sdds11WorkstationENS_9allocatorIS3_EEE11__recommendB7v160006Em, symObjAddr: 0x31F8, symBinAddr: 0x100009398, symSize: 0xB4 }
  - { offsetInCU: 0x151C2, offset: 0x2234E, size: 0x8, addend: 0x0, symName: __ZNSt3__114__split_bufferIPN4sdds11WorkstationERNS_9allocatorIS3_EEEC1EmmS6_, symObjAddr: 0x32AC, symBinAddr: 0x10000944C, symSize: 0x44 }
  - { offsetInCU: 0x15218, offset: 0x223A4, size: 0x8, addend: 0x0, symName: __ZNSt3__114__split_bufferIPN4sdds11WorkstationERNS_9allocatorIS3_EEED1Ev, symObjAddr: 0x3408, symBinAddr: 0x1000095A8, symSize: 0x2C }
  - { offsetInCU: 0x15244, offset: 0x223D0, size: 0x8, addend: 0x0, symName: __ZNKSt3__16vectorIPN4sdds11WorkstationENS_9allocatorIS3_EEE8max_sizeEv, symObjAddr: 0x3434, symBinAddr: 0x1000095D4, symSize: 0x60 }
  - { offsetInCU: 0x1526B, offset: 0x223F7, size: 0x8, addend: 0x0, symName: __ZNKSt3__16vectorIPN4sdds11WorkstationENS_9allocatorIS3_EEE20__throw_length_errorB7v160006Ev, symObjAddr: 0x3494, symBinAddr: 0x100009634, symSize: 0x1C }
  - { offsetInCU: 0x1529B, offset: 0x22427, size: 0x8, addend: 0x0, symName: __ZNSt3__116allocator_traitsINS_9allocatorIPN4sdds11WorkstationEEEE8max_sizeB7v160006IS5_vEEmRKS5_, symObjAddr: 0x3508, symBinAddr: 0x100009650, symSize: 0x24 }
  - { offsetInCU: 0x152C9, offset: 0x22455, size: 0x8, addend: 0x0, symName: __ZNKSt3__16vectorIPN4sdds11WorkstationENS_9allocatorIS3_EEE7__allocB7v160006Ev, symObjAddr: 0x352C, symBinAddr: 0x100009674, symSize: 0x28 }
  - { offsetInCU: 0x152EF, offset: 0x2247B, size: 0x8, addend: 0x0, symName: __ZNKSt3__19allocatorIPN4sdds11WorkstationEE8max_sizeB7v160006Ev, symObjAddr: 0x35F0, symBinAddr: 0x10000969C, symSize: 0x14 }
  - { offsetInCU: 0x15315, offset: 0x224A1, size: 0x8, addend: 0x0, symName: __ZNKSt3__117__compressed_pairIPPN4sdds11WorkstationENS_9allocatorIS3_EEE6secondB7v160006Ev, symObjAddr: 0x3604, symBinAddr: 0x1000096B0, symSize: 0x24 }
  - { offsetInCU: 0x1533B, offset: 0x224C7, size: 0x8, addend: 0x0, symName: __ZNKSt3__122__compressed_pair_elemINS_9allocatorIPN4sdds11WorkstationEEELi1ELb1EE5__getB7v160006Ev, symObjAddr: 0x3628, symBinAddr: 0x1000096D4, symSize: 0x14 }
  - { offsetInCU: 0x15361, offset: 0x224ED, size: 0x8, addend: 0x0, symName: __ZNSt3__114__split_bufferIPN4sdds11WorkstationERNS_9allocatorIS3_EEEC2EmmS6_, symObjAddr: 0x377C, symBinAddr: 0x1000096E8, symSize: 0xD4 }
  - { offsetInCU: 0x153D4, offset: 0x22560, size: 0x8, addend: 0x0, symName: __ZNSt3__117__compressed_pairIPPN4sdds11WorkstationERNS_9allocatorIS3_EEEC1B7v160006IDnS7_EEOT_OT0_, symObjAddr: 0x3850, symBinAddr: 0x1000097BC, symSize: 0x3C }
  - { offsetInCU: 0x1542C, offset: 0x225B8, size: 0x8, addend: 0x0, symName: __ZNSt3__114__split_bufferIPN4sdds11WorkstationERNS_9allocatorIS3_EEE7__allocB7v160006Ev, symObjAddr: 0x38CC, symBinAddr: 0x100009838, symSize: 0x28 }
  - { offsetInCU: 0x15452, offset: 0x225DE, size: 0x8, addend: 0x0, symName: __ZNSt3__114__split_bufferIPN4sdds11WorkstationERNS_9allocatorIS3_EEE9__end_capB7v160006Ev, symObjAddr: 0x38F4, symBinAddr: 0x100009860, symSize: 0x28 }
  - { offsetInCU: 0x15478, offset: 0x22604, size: 0x8, addend: 0x0, symName: __ZNSt3__117__compressed_pairIPPN4sdds11WorkstationERNS_9allocatorIS3_EEEC2B7v160006IDnS7_EEOT_OT0_, symObjAddr: 0x391C, symBinAddr: 0x100009888, symSize: 0x48 }
  - { offsetInCU: 0x154D0, offset: 0x2265C, size: 0x8, addend: 0x0, symName: __ZNSt3__122__compressed_pair_elemIRNS_9allocatorIPN4sdds11WorkstationEEELi1ELb0EEC2B7v160006IS6_vEEOT_, symObjAddr: 0x3964, symBinAddr: 0x1000098D0, symSize: 0x20 }
  - { offsetInCU: 0x15512, offset: 0x2269E, size: 0x8, addend: 0x0, symName: __ZNSt3__19allocatorIPN4sdds11WorkstationEE8allocateB7v160006Em, symObjAddr: 0x3984, symBinAddr: 0x1000098F0, symSize: 0x58 }
  - { offsetInCU: 0x15546, offset: 0x226D2, size: 0x8, addend: 0x0, symName: __ZNSt3__117__compressed_pairIPPN4sdds11WorkstationERNS_9allocatorIS3_EEE6secondB7v160006Ev, symObjAddr: 0x3AC0, symBinAddr: 0x100009948, symSize: 0x28 }
  - { offsetInCU: 0x1556C, offset: 0x226F8, size: 0x8, addend: 0x0, symName: __ZNSt3__122__compressed_pair_elemIRNS_9allocatorIPN4sdds11WorkstationEEELi1ELb0EE5__getB7v160006Ev, symObjAddr: 0x3AE8, symBinAddr: 0x100009970, symSize: 0x18 }
  - { offsetInCU: 0x15592, offset: 0x2271E, size: 0x8, addend: 0x0, symName: __ZNSt3__117__compressed_pairIPPN4sdds11WorkstationERNS_9allocatorIS3_EEE5firstB7v160006Ev, symObjAddr: 0x3B00, symBinAddr: 0x100009988, symSize: 0x24 }
  - { offsetInCU: 0x155B8, offset: 0x22744, size: 0x8, addend: 0x0, symName: __ZNSt3__116reverse_iteratorIPPN4sdds11WorkstationEEC1B7v160006ES4_, symObjAddr: 0x3B9C, symBinAddr: 0x100009A24, symSize: 0x34 }
  - { offsetInCU: 0x155F0, offset: 0x2277C, size: 0x8, addend: 0x0, symName: __ZNKSt3__116reverse_iteratorIPPN4sdds11WorkstationEE4baseB7v160006Ev, symObjAddr: 0x3BD0, symBinAddr: 0x100009A58, symSize: 0x18 }
  - { offsetInCU: 0x15616, offset: 0x227A2, size: 0x8, addend: 0x0, symName: __ZNKSt3__16vectorIPN4sdds11WorkstationENS_9allocatorIS3_EEE14__annotate_newB7v160006Em, symObjAddr: 0x3C24, symBinAddr: 0x100009AAC, symSize: 0xAC }
  - { offsetInCU: 0x1566E, offset: 0x227FA, size: 0x8, addend: 0x0, symName: __ZNKSt3__111__move_loopINS_17_ClassicAlgPolicyEEclB7v160006INS_16reverse_iteratorIPPN4sdds11WorkstationEEES9_S9_EENS_4pairIT_T1_EESB_T0_SC_, symObjAddr: 0x3FD0, symBinAddr: 0x100009E58, symSize: 0xA0 }
  - { offsetInCU: 0x156DE, offset: 0x2286A, size: 0x8, addend: 0x0, symName: __ZNSt3__18_IterOpsINS_17_ClassicAlgPolicyEE11__iter_moveB7v160006IRNS_16reverse_iteratorIPPN4sdds11WorkstationEEEEENS_9enable_ifIXsr12is_referenceIDTdeclsr3stdE7declvalIRT_EEEEE5valueEDTclsr3stdE4movedeclsr3stdE7declvalISD_EEEEE4typeEOSC_, symObjAddr: 0x4204, symBinAddr: 0x10000A08C, symSize: 0x28 }
  - { offsetInCU: 0x1570A, offset: 0x22896, size: 0x8, addend: 0x0, symName: __ZNKSt3__116reverse_iteratorIPPN4sdds11WorkstationEEdeB7v160006Ev, symObjAddr: 0x422C, symBinAddr: 0x10000A0B4, symSize: 0x28 }
  - { offsetInCU: 0x1573E, offset: 0x228CA, size: 0x8, addend: 0x0, symName: __ZNSt3__116reverse_iteratorIPPN4sdds11WorkstationEEppB7v160006Ev, symObjAddr: 0x4254, symBinAddr: 0x10000A0DC, symSize: 0x20 }
  - { offsetInCU: 0x15764, offset: 0x228F0, size: 0x8, addend: 0x0, symName: __ZNSt3__18_IterOpsINS_17_ClassicAlgPolicyEE25__validate_iter_referenceB7v160006IRNS_16reverse_iteratorIPPN4sdds11WorkstationEEEEEvv, symObjAddr: 0x4274, symBinAddr: 0x10000A0FC, symSize: 0x4 }
  - { offsetInCU: 0x15782, offset: 0x2290E, size: 0x8, addend: 0x0, symName: __ZNSt3__118__unwrap_iter_implINS_16reverse_iteratorIPPN4sdds11WorkstationEEELb0EE8__unwrapB7v160006ES6_, symObjAddr: 0x4278, symBinAddr: 0x10000A100, symSize: 0x24 }
  - { offsetInCU: 0x157AA, offset: 0x22936, size: 0x8, addend: 0x0, symName: __ZNSt3__14pairINS_16reverse_iteratorIPPN4sdds11WorkstationEEES6_EC1B7v160006IS6_S6_LPv0EEEOT_OT0_, symObjAddr: 0x429C, symBinAddr: 0x10000A124, symSize: 0x3C }
  - { offsetInCU: 0x15808, offset: 0x22994, size: 0x8, addend: 0x0, symName: __ZNSt3__14pairINS_16reverse_iteratorIPPN4sdds11WorkstationEEES6_EC2B7v160006IS6_S6_LPv0EEEOT_OT0_, symObjAddr: 0x42D8, symBinAddr: 0x10000A160, symSize: 0x34 }
  - { offsetInCU: 0x15866, offset: 0x229F2, size: 0x8, addend: 0x0, symName: __ZNSt3__118__unwrap_iter_implINS_16reverse_iteratorIPPN4sdds11WorkstationEEELb0EE8__rewrapB7v160006ES6_S6_, symObjAddr: 0x430C, symBinAddr: 0x10000A194, symSize: 0x2C }
  - { offsetInCU: 0x15894, offset: 0x22A20, size: 0x8, addend: 0x0, symName: __ZNSt3__116reverse_iteratorIPPN4sdds11WorkstationEEC2B7v160006ES4_, symObjAddr: 0x4338, symBinAddr: 0x10000A1C0, symSize: 0x28 }
  - { offsetInCU: 0x158CC, offset: 0x22A58, size: 0x8, addend: 0x0, symName: __ZNSt3__114__split_bufferIPN4sdds11WorkstationERNS_9allocatorIS3_EEED2Ev, symObjAddr: 0x4360, symBinAddr: 0x10000A1E8, symSize: 0x8C }
  - { offsetInCU: 0x158F8, offset: 0x22A84, size: 0x8, addend: 0x0, symName: __ZNSt3__114__split_bufferIPN4sdds11WorkstationERNS_9allocatorIS3_EEE5clearB7v160006Ev, symObjAddr: 0x43EC, symBinAddr: 0x10000A274, symSize: 0x28 }
  - { offsetInCU: 0x1591E, offset: 0x22AAA, size: 0x8, addend: 0x0, symName: __ZNKSt3__114__split_bufferIPN4sdds11WorkstationERNS_9allocatorIS3_EEE8capacityB7v160006Ev, symObjAddr: 0x4414, symBinAddr: 0x10000A29C, symSize: 0x40 }
  - { offsetInCU: 0x15944, offset: 0x22AD0, size: 0x8, addend: 0x0, symName: __ZNSt3__114__split_bufferIPN4sdds11WorkstationERNS_9allocatorIS3_EEE17__destruct_at_endB7v160006EPS3_, symObjAddr: 0x4454, symBinAddr: 0x10000A2DC, symSize: 0x2C }
  - { offsetInCU: 0x15978, offset: 0x22B04, size: 0x8, addend: 0x0, symName: __ZNSt3__114__split_bufferIPN4sdds11WorkstationERNS_9allocatorIS3_EEE17__destruct_at_endB7v160006EPS3_NS_17integral_constantIbLb0EEE, symObjAddr: 0x4480, symBinAddr: 0x10000A308, symSize: 0x80 }
  - { offsetInCU: 0x159B8, offset: 0x22B44, size: 0x8, addend: 0x0, symName: __ZNKSt3__114__split_bufferIPN4sdds11WorkstationERNS_9allocatorIS3_EEE9__end_capB7v160006Ev, symObjAddr: 0x4500, symBinAddr: 0x10000A388, symSize: 0x28 }
  - { offsetInCU: 0x159DE, offset: 0x22B6A, size: 0x8, addend: 0x0, symName: __ZNKSt3__117__compressed_pairIPPN4sdds11WorkstationERNS_9allocatorIS3_EEE5firstB7v160006Ev, symObjAddr: 0x4528, symBinAddr: 0x10000A3B0, symSize: 0x24 }
  - { offsetInCU: 0x15A04, offset: 0x22B90, size: 0x8, addend: 0x0, symName: __ZNKSt3__15dequeIN4sdds13CustomerOrderENS_9allocatorIS2_EEE6__sizeB7v160006Ev, symObjAddr: 0x454C, symBinAddr: 0x10000A3D4, symSize: 0x28 }
  - { offsetInCU: 0x15A2A, offset: 0x22BB6, size: 0x8, addend: 0x0, symName: __ZNKSt3__117__compressed_pairImNS_9allocatorIN4sdds13CustomerOrderEEEE5firstB7v160006Ev, symObjAddr: 0x4574, symBinAddr: 0x10000A3FC, symSize: 0x24 }
  - { offsetInCU: 0x15A50, offset: 0x22BDC, size: 0x8, addend: 0x0, symName: __ZNKSt3__122__compressed_pair_elemImLi0ELb0EE5__getB7v160006Ev, symObjAddr: 0x4598, symBinAddr: 0x10000A420, symSize: 0x14 }
  - { offsetInCU: 0x15A76, offset: 0x22C02, size: 0x8, addend: 0x0, symName: __ZNKSt3__16vectorIPN4sdds11WorkstationENS_9allocatorIS3_EEE17__annotate_shrinkB7v160006Em, symObjAddr: 0x45AC, symBinAddr: 0x10000A434, symSize: 0xB4 }
  - { offsetInCU: 0x15AC9, offset: 0x22C55, size: 0x8, addend: 0x0, symName: __ZNSt3__114__split_bufferIPN4sdds13CustomerOrderENS_9allocatorIS3_EEE5beginB7v160006Ev, symObjAddr: 0x4DC8, symBinAddr: 0x10000A4E8, symSize: 0x18 }
  - { offsetInCU: 0x15AEF, offset: 0x22C7B, size: 0x8, addend: 0x0, symName: __ZNSt3__15dequeIN4sdds13CustomerOrderENS_9allocatorIS2_EEE7__allocB7v160006Ev, symObjAddr: 0x4DE0, symBinAddr: 0x10000A500, symSize: 0x28 }
  - { offsetInCU: 0x15B15, offset: 0x22CA1, size: 0x8, addend: 0x0, symName: __ZNSt3__116allocator_traitsINS_9allocatorIN4sdds13CustomerOrderEEEE7destroyB7v160006IS3_vEEvRS4_PT_, symObjAddr: 0x4E08, symBinAddr: 0x10000A528, symSize: 0x2C }
  - { offsetInCU: 0x15B52, offset: 0x22CDE, size: 0x8, addend: 0x0, symName: __ZNSt3__15dequeIN4sdds13CustomerOrderENS_9allocatorIS2_EEE6__sizeB7v160006Ev, symObjAddr: 0x4E48, symBinAddr: 0x10000A568, symSize: 0x28 }
  - { offsetInCU: 0x15B78, offset: 0x22D04, size: 0x8, addend: 0x0, symName: __ZNSt3__15dequeIN4sdds13CustomerOrderENS_9allocatorIS2_EEE26__maybe_remove_front_spareB7v160006Eb, symObjAddr: 0x4E70, symBinAddr: 0x10000A590, symSize: 0xDC }
  - { offsetInCU: 0x15BAD, offset: 0x22D39, size: 0x8, addend: 0x0, symName: __ZNSt3__117__compressed_pairImNS_9allocatorIN4sdds13CustomerOrderEEEE6secondB7v160006Ev, symObjAddr: 0x4F4C, symBinAddr: 0x10000A66C, symSize: 0x24 }
  - { offsetInCU: 0x15BD3, offset: 0x22D5F, size: 0x8, addend: 0x0, symName: __ZNSt3__122__compressed_pair_elemINS_9allocatorIN4sdds13CustomerOrderEEELi1ELb1EE5__getB7v160006Ev, symObjAddr: 0x4F70, symBinAddr: 0x10000A690, symSize: 0x14 }
  - { offsetInCU: 0x15BF9, offset: 0x22D85, size: 0x8, addend: 0x0, symName: __ZNSt3__19allocatorIN4sdds13CustomerOrderEE7destroyB7v160006EPS2_, symObjAddr: 0x4F84, symBinAddr: 0x10000A6A4, symSize: 0x28 }
  - { offsetInCU: 0x15C2D, offset: 0x22DB9, size: 0x8, addend: 0x0, symName: __ZNSt3__117__compressed_pairImNS_9allocatorIN4sdds13CustomerOrderEEEE5firstB7v160006Ev, symObjAddr: 0x4FAC, symBinAddr: 0x10000A6CC, symSize: 0x24 }
  - { offsetInCU: 0x15C53, offset: 0x22DDF, size: 0x8, addend: 0x0, symName: __ZNSt3__122__compressed_pair_elemImLi0ELb0EE5__getB7v160006Ev, symObjAddr: 0x4FD0, symBinAddr: 0x10000A6F0, symSize: 0x14 }
  - { offsetInCU: 0x15C79, offset: 0x22E05, size: 0x8, addend: 0x0, symName: __ZNKSt3__15dequeIN4sdds13CustomerOrderENS_9allocatorIS2_EEE20__front_spare_blocksB7v160006Ev, symObjAddr: 0x4FE4, symBinAddr: 0x10000A704, symSize: 0x2C }
  - { offsetInCU: 0x15C9F, offset: 0x22E2B, size: 0x8, addend: 0x0, symName: __ZNSt3__116allocator_traitsINS_9allocatorIN4sdds13CustomerOrderEEEE10deallocateB7v160006ERS4_PS3_m, symObjAddr: 0x5010, symBinAddr: 0x10000A730, symSize: 0x34 }
  - { offsetInCU: 0x15CE1, offset: 0x22E6D, size: 0x8, addend: 0x0, symName: __ZNSt3__114__split_bufferIPN4sdds13CustomerOrderENS_9allocatorIS3_EEE5frontB7v160006Ev, symObjAddr: 0x5044, symBinAddr: 0x10000A764, symSize: 0x18 }
  - { offsetInCU: 0x15D07, offset: 0x22E93, size: 0x8, addend: 0x0, symName: __ZNSt3__114__split_bufferIPN4sdds13CustomerOrderENS_9allocatorIS3_EEE9pop_frontB7v160006Ev, symObjAddr: 0x505C, symBinAddr: 0x10000A77C, symSize: 0x2C }
  - { offsetInCU: 0x15D2D, offset: 0x22EB9, size: 0x8, addend: 0x0, symName: __ZNKSt3__15dequeIN4sdds13CustomerOrderENS_9allocatorIS2_EEE13__front_spareB7v160006Ev, symObjAddr: 0x5088, symBinAddr: 0x10000A7A8, symSize: 0x18 }
  - { offsetInCU: 0x15D53, offset: 0x22EDF, size: 0x8, addend: 0x0, symName: __ZNSt3__19allocatorIN4sdds13CustomerOrderEE10deallocateB7v160006EPS2_m, symObjAddr: 0x50A0, symBinAddr: 0x10000A7C0, symSize: 0x40 }
  - { offsetInCU: 0x15D95, offset: 0x22F21, size: 0x8, addend: 0x0, symName: __ZNSt3__114__split_bufferIPN4sdds13CustomerOrderENS_9allocatorIS3_EEE19__destruct_at_beginB7v160006EPS3_, symObjAddr: 0x50E0, symBinAddr: 0x10000A800, symSize: 0x2C }
  - { offsetInCU: 0x15DC9, offset: 0x22F55, size: 0x8, addend: 0x0, symName: __ZNSt3__114__split_bufferIPN4sdds13CustomerOrderENS_9allocatorIS3_EEE19__destruct_at_beginEPS3_NS_17integral_constantIbLb1EEE, symObjAddr: 0x510C, symBinAddr: 0x10000A82C, symSize: 0x20 }
  - { offsetInCU: 0x15E0A, offset: 0x22F96, size: 0x8, addend: 0x0, symName: __ZNSt3__16vectorIPN4sdds11WorkstationENS_9allocatorIS3_EEE11__make_iterB7v160006EPS3_, symObjAddr: 0x512C, symBinAddr: 0x10000A84C, symSize: 0x34 }
  - { offsetInCU: 0x15E3F, offset: 0x22FCB, size: 0x8, addend: 0x0, symName: __ZNSt3__111__wrap_iterIPPN4sdds11WorkstationEEC1B7v160006EPKvS4_, symObjAddr: 0x5160, symBinAddr: 0x10000A880, symSize: 0x3C }
  - { offsetInCU: 0x15E85, offset: 0x23011, size: 0x8, addend: 0x0, symName: __ZNSt3__111__wrap_iterIPPN4sdds11WorkstationEEC2B7v160006EPKvS4_, symObjAddr: 0x519C, symBinAddr: 0x10000A8BC, symSize: 0x24 }
  - { offsetInCU: 0x15ED5, offset: 0x23061, size: 0x8, addend: 0x0, symName: '__ZZN4sdds11LineManager18findLastInSequenceERKNSt3__16vectorIPNS_11WorkstationENS1_9allocatorIS4_EEEEENK3$_2clEPKS3_', symObjAddr: 0x51C0, symBinAddr: 0x10000A8E0, symSize: 0x34 }
  - { offsetInCU: 0x15F17, offset: 0x230A3, size: 0x8, addend: 0x0, symName: '__ZZN4sdds11LineManager15findPredecessorERKNSt3__16vectorIPNS_11WorkstationENS1_9allocatorIS4_EEEENS1_11__wrap_iterIPKS4_EEENK3$_3clEPKS3_', symObjAddr: 0x51F4, symBinAddr: 0x10000A914, symSize: 0x58 }
  - { offsetInCU: 0x3E, offset: 0x23221, size: 0x8, addend: 0x0, symName: __ZN4sdds7Station12m_widthFieldE, symObjAddr: 0x1AC58, symBinAddr: 0x100018018, symSize: 0x0 }
  - { offsetInCU: 0x132, offset: 0x23315, size: 0x8, addend: 0x0, symName: __ZN4sdds7Station12id_generatorE, symObjAddr: 0x1AC60, symBinAddr: 0x100018020, symSize: 0x0 }
  - { offsetInCU: 0x3EFA, offset: 0x270DD, size: 0x8, addend: 0x0, symName: __ZNSt3__15rightB7v160006ERNS_8ios_baseE, symObjAddr: 0x760, symBinAddr: 0x10000AED4, symSize: 0x30 }
  - { offsetInCU: 0x3F28, offset: 0x2710B, size: 0x8, addend: 0x0, symName: __ZNSt3__14leftB7v160006ERNS_8ios_baseE, symObjAddr: 0x790, symBinAddr: 0x10000AF04, symSize: 0x30 }
  - { offsetInCU: 0x6046, offset: 0x29229, size: 0x8, addend: 0x0, symName: __ZN4sdds7StationC2ERKNSt3__112basic_stringIcNS1_11char_traitsIcEENS1_9allocatorIcEEEE, symObjAddr: 0x0, symBinAddr: 0x10000A96C, symSize: 0x230 }
  - { offsetInCU: 0x60B1, offset: 0x29294, size: 0x8, addend: 0x0, symName: __ZNKSt3__112basic_stringIcNS_11char_traitsIcEENS_9allocatorIcEEE6lengthB7v160006Ev, symObjAddr: 0x2BC, symBinAddr: 0x10000AB9C, symSize: 0x24 }
  - { offsetInCU: 0x60D6, offset: 0x292B9, size: 0x8, addend: 0x0, symName: __ZN4sdds7StationC1ERKNSt3__112basic_stringIcNS1_11char_traitsIcEENS1_9allocatorIcEEEE, symObjAddr: 0x2E0, symBinAddr: 0x10000ABC0, symSize: 0x34 }
  - { offsetInCU: 0x6111, offset: 0x292F4, size: 0x8, addend: 0x0, symName: __ZNK4sdds7Station11getItemNameEv, symObjAddr: 0x314, symBinAddr: 0x10000ABF4, symSize: 0x18 }
  - { offsetInCU: 0x6139, offset: 0x2931C, size: 0x8, addend: 0x0, symName: __ZN4sdds7Station19getNextSerialNumberEv, symObjAddr: 0x32C, symBinAddr: 0x10000AC0C, symSize: 0x20 }
  - { offsetInCU: 0x6161, offset: 0x29344, size: 0x8, addend: 0x0, symName: __ZNK4sdds7Station11getQuantityEv, symObjAddr: 0x34C, symBinAddr: 0x10000AC2C, symSize: 0x18 }
  - { offsetInCU: 0x6189, offset: 0x2936C, size: 0x8, addend: 0x0, symName: __ZN4sdds7Station14updateQuantityEv, symObjAddr: 0x364, symBinAddr: 0x10000AC44, symSize: 0x40 }
  - { offsetInCU: 0x61B1, offset: 0x29394, size: 0x8, addend: 0x0, symName: __ZNK4sdds7Station7displayERNSt3__113basic_ostreamIcNS1_11char_traitsIcEEEEb, symObjAddr: 0x3A4, symBinAddr: 0x10000AC84, symSize: 0x210 }
  - { offsetInCU: 0x61F5, offset: 0x293D8, size: 0x8, addend: 0x0, symName: __ZNSt3__113basic_ostreamIcNS_11char_traitsIcEEElsB7v160006EPFRNS_8ios_baseES5_E, symObjAddr: 0x720, symBinAddr: 0x10000AE94, symSize: 0x40 }
  - { offsetInCU: 0x6229, offset: 0x2940C, size: 0x8, addend: 0x0, symName: __ZNSt3__18ios_base4setfB7v160006Ejj, symObjAddr: 0x8B4, symBinAddr: 0x10000AF34, symSize: 0x5C }
  - { offsetInCU: 0x627D, offset: 0x29460, size: 0x8, addend: 0x0, symName: __ZNSt3__18ios_base6unsetfB7v160006Ej, symObjAddr: 0x910, symBinAddr: 0x10000AF90, symSize: 0x28 }
  - { offsetInCU: 0x3E, offset: 0x2950B, size: 0x8, addend: 0x0, symName: __ZN4sdds9Utilities11m_delimiterE, symObjAddr: 0x1060, symBinAddr: 0x100018008, symSize: 0x0 }
  - { offsetInCU: 0x2A74, offset: 0x2BF41, size: 0x8, addend: 0x0, symName: __ZNSt3__123__str_find_first_not_ofB7v160006IcmNS_11char_traitsIcEELm18446744073709551615EEET0_PKT_S3_S6_S3_S3_, symObjAddr: 0xB48, symBinAddr: 0x10000B47C, symSize: 0xDC }
  - { offsetInCU: 0x2B46, offset: 0x2C013, size: 0x8, addend: 0x0, symName: __ZNSt3__123__constexpr_char_memchrB7v160006EPKcim, symObjAddr: 0xCF0, symBinAddr: 0x10000B5C8, symSize: 0x34 }
  - { offsetInCU: 0x2B8E, offset: 0x2C05B, size: 0x8, addend: 0x0, symName: __ZNSt3__122__str_find_last_not_ofB7v160006IcmNS_11char_traitsIcEELm18446744073709551615EEET0_PKT_S3_S6_S3_S3_, symObjAddr: 0xE14, symBinAddr: 0x10000B5FC, symSize: 0xDC }
  - { offsetInCU: 0x4BE8, offset: 0x2E0B5, size: 0x8, addend: 0x0, symName: __ZN4sdds9Utilities13setFieldWidthEm, symObjAddr: 0x0, symBinAddr: 0x10000AFB8, symSize: 0x20 }
  - { offsetInCU: 0x4C1E, offset: 0x2E0EB, size: 0x8, addend: 0x0, symName: __ZNK4sdds9Utilities13getFieldWidthEv, symObjAddr: 0x20, symBinAddr: 0x10000AFD8, symSize: 0x18 }
  - { offsetInCU: 0x4C46, offset: 0x2E113, size: 0x8, addend: 0x0, symName: __ZN4sdds9Utilities12extractTokenERKNSt3__112basic_stringIcNS1_11char_traitsIcEENS1_9allocatorIcEEEERmRb, symObjAddr: 0x38, symBinAddr: 0x10000AFF0, symSize: 0x200 }
  - { offsetInCU: 0x4CB5, offset: 0x2E182, size: 0x8, addend: 0x0, symName: __ZNKSt3__112basic_stringIcNS_11char_traitsIcEENS_9allocatorIcEEE6substrB7v160006Emm, symObjAddr: 0x238, symBinAddr: 0x10000B1F0, symSize: 0x68 }
  - { offsetInCU: 0x4CF9, offset: 0x2E1C6, size: 0x8, addend: 0x0, symName: __ZNKSt3__112basic_stringIcNS_11char_traitsIcEENS_9allocatorIcEEE5emptyB7v160006Ev, symObjAddr: 0x2A0, symBinAddr: 0x10000B258, symSize: 0x30 }
  - { offsetInCU: 0x4D1F, offset: 0x2E1EC, size: 0x8, addend: 0x0, symName: __ZN4sdds9Utilities4trimERKNSt3__112basic_stringIcNS1_11char_traitsIcEENS1_9allocatorIcEEEE, symObjAddr: 0x2D0, symBinAddr: 0x10000B288, symSize: 0xB8 }
  - { offsetInCU: 0x4D71, offset: 0x2E23E, size: 0x8, addend: 0x0, symName: __ZNKSt3__112basic_stringIcNS_11char_traitsIcEENS_9allocatorIcEEE17find_first_not_ofB7v160006EPKcm, symObjAddr: 0x3E0, symBinAddr: 0x10000B340, symSize: 0x74 }
  - { offsetInCU: 0x4DB6, offset: 0x2E283, size: 0x8, addend: 0x0, symName: __ZNKSt3__112basic_stringIcNS_11char_traitsIcEENS_9allocatorIcEEE16find_last_not_ofB7v160006EPKcm, symObjAddr: 0x454, symBinAddr: 0x10000B3B4, symSize: 0x74 }
  - { offsetInCU: 0x4E00, offset: 0x2E2CD, size: 0x8, addend: 0x0, symName: __ZN4sdds9Utilities12setDelimiterEc, symObjAddr: 0x4FC, symBinAddr: 0x10000B428, symSize: 0x1C }
  - { offsetInCU: 0x4E25, offset: 0x2E2F2, size: 0x8, addend: 0x0, symName: __ZN4sdds9Utilities12getDelimiterEv, symObjAddr: 0x518, symBinAddr: 0x10000B444, symSize: 0xC }
  - { offsetInCU: 0x4E3B, offset: 0x2E308, size: 0x8, addend: 0x0, symName: __ZNSt3__19allocatorIcEC1B7v160006Ev, symObjAddr: 0x524, symBinAddr: 0x10000B450, symSize: 0x2C }
  - { offsetInCU: 0x4E65, offset: 0x2E332, size: 0x8, addend: 0x0, symName: __ZNSt3__111char_traitsIcE4findEPKcmRS2_, symObjAddr: 0xC80, symBinAddr: 0x10000B558, symSize: 0x70 }
  - { offsetInCU: 0x44, offset: 0x2E3C9, size: 0x8, addend: 0x0, symName: __ZN4sdds9g_pendingE, symObjAddr: 0x32E30, symBinAddr: 0x100018028, symSize: 0x0 }
  - { offsetInCU: 0x2C5, offset: 0x2E64A, size: 0x8, addend: 0x0, symName: __ZN4sdds11g_completedE, symObjAddr: 0x32E60, symBinAddr: 0x100018058, symSize: 0x0 }
  - { offsetInCU: 0x2DF, offset: 0x2E664, size: 0x8, addend: 0x0, symName: __ZN4sdds12g_incompleteE, symObjAddr: 0x32E90, symBinAddr: 0x100018088, symSize: 0x0 }
  - { offsetInCU: 0x64A6, offset: 0x3482B, size: 0x8, addend: 0x0, symName: __ZNSt3__1neB7v160006ERKNS_16__deque_iteratorIN4sdds13CustomerOrderEPS2_RS2_PS3_lLl64EEES8_, symObjAddr: 0xD9C, symBinAddr: 0x10000C1B0, symSize: 0x34 }
  - { offsetInCU: 0x64E3, offset: 0x34868, size: 0x8, addend: 0x0, symName: __ZNSt3__1eqB7v160006ERKNS_16__deque_iteratorIN4sdds13CustomerOrderEPS2_RS2_PS3_lLl64EEES8_, symObjAddr: 0x1030, symBinAddr: 0x10000C324, symSize: 0x30 }
  - { offsetInCU: 0x6520, offset: 0x348A5, size: 0x8, addend: 0x0, symName: __ZNSt3__112__to_addressB7v160006IPN4sdds13CustomerOrderEEEPT_S5_, symObjAddr: 0x14D4, symBinAddr: 0x10000C57C, symSize: 0x14 }
  - { offsetInCU: 0x69AE, offset: 0x34D33, size: 0x8, addend: 0x0, symName: __ZNSt3__14swapB7v160006IPPN4sdds13CustomerOrderEEENS_9enable_ifIXaasr21is_move_constructibleIT_EE5valuesr18is_move_assignableIS6_EE5valueEvE4typeERS6_S9_, symObjAddr: 0x2780, symBinAddr: 0x10000D7E4, symSize: 0x3C }
  - { offsetInCU: 0x69FF, offset: 0x34D84, size: 0x8, addend: 0x0, symName: __ZNSt3__14moveB7v160006IPPN4sdds13CustomerOrderES4_EET0_T_S6_S5_, symObjAddr: 0x2864, symBinAddr: 0x10000D8C8, symSize: 0x40 }
  - { offsetInCU: 0x6A59, offset: 0x34DDE, size: 0x8, addend: 0x0, symName: __ZNSt3__16__moveB7v160006INS_17_ClassicAlgPolicyEPPN4sdds13CustomerOrderES5_S5_EENS_4pairIT0_T2_EES7_T1_S8_, symObjAddr: 0x2A08, symBinAddr: 0x10000DA6C, symSize: 0x44 }
  - { offsetInCU: 0x6AC5, offset: 0x34E4A, size: 0x8, addend: 0x0, symName: __ZNSt3__123__dispatch_copy_or_moveB7v160006INS_17_ClassicAlgPolicyENS_11__move_loopIS1_EENS_14__move_trivialEPPN4sdds13CustomerOrderES8_S8_EENS_4pairIT2_T4_EESA_T3_SB_, symObjAddr: 0x2A4C, symBinAddr: 0x10000DAB0, symSize: 0x44 }
  - { offsetInCU: 0x6B43, offset: 0x34EC8, size: 0x8, addend: 0x0, symName: __ZNSt3__121__unwrap_and_dispatchB7v160006INS_10__overloadINS_11__move_loopINS_17_ClassicAlgPolicyEEENS_14__move_trivialEEEPPN4sdds13CustomerOrderESA_SA_Li0EEENS_4pairIT0_T2_EESC_T1_SD_, symObjAddr: 0x2A90, symBinAddr: 0x10000DAF4, symSize: 0xB4 }
  - { offsetInCU: 0x6BD2, offset: 0x34F57, size: 0x8, addend: 0x0, symName: __ZNSt3__114__unwrap_rangeB7v160006IPPN4sdds13CustomerOrderES4_EENS_4pairIT0_S6_EET_S8_, symObjAddr: 0x2B44, symBinAddr: 0x10000DBA8, symSize: 0x60 }
  - { offsetInCU: 0x6D97, offset: 0x3511C, size: 0x8, addend: 0x0, symName: __ZNSt3__113__unwrap_iterB7v160006IPPN4sdds13CustomerOrderENS_18__unwrap_iter_implIS4_Lb1EEELi0EEEDTclsrT0_8__unwrapclsr3stdE7declvalIT_EEEES8_, symObjAddr: 0x2BEC, symBinAddr: 0x10000DC50, symSize: 0x24 }
  - { offsetInCU: 0x6DDC, offset: 0x35161, size: 0x8, addend: 0x0, symName: __ZNSt3__19make_pairB7v160006IPPN4sdds13CustomerOrderES4_EENS_4pairINS_18__unwrap_ref_decayIT_E4typeENS6_IT0_E4typeEEEOS7_OSA_, symObjAddr: 0x2C10, symBinAddr: 0x10000DC74, symSize: 0x38 }
  - { offsetInCU: 0x6E2B, offset: 0x351B0, size: 0x8, addend: 0x0, symName: __ZNSt3__114__rewrap_rangeB7v160006IPPN4sdds13CustomerOrderES4_EET_S5_T0_, symObjAddr: 0x2C48, symBinAddr: 0x10000DCAC, symSize: 0x2C }
  - { offsetInCU: 0x6E77, offset: 0x351FC, size: 0x8, addend: 0x0, symName: __ZNSt3__113__rewrap_iterB7v160006IPPN4sdds13CustomerOrderES4_NS_18__unwrap_iter_implIS4_Lb1EEEEET_S7_T0_, symObjAddr: 0x2C74, symBinAddr: 0x10000DCD8, symSize: 0x3C }
  - { offsetInCU: 0x6ECC, offset: 0x35251, size: 0x8, addend: 0x0, symName: __ZNSt3__119__copy_trivial_implB7v160006IPN4sdds13CustomerOrderES3_EENS_4pairIPT_PT0_EES6_S6_S8_, symObjAddr: 0x2CB0, symBinAddr: 0x10000DD14, symSize: 0x84 }
  - { offsetInCU: 0x6F34, offset: 0x352B9, size: 0x8, addend: 0x0, symName: __ZNSt3__19make_pairB7v160006IRPPN4sdds13CustomerOrderES4_EENS_4pairINS_18__unwrap_ref_decayIT_E4typeENS7_IT0_E4typeEEEOS8_OSB_, symObjAddr: 0x2D34, symBinAddr: 0x10000DD98, symSize: 0x38 }
  - { offsetInCU: 0x6FD6, offset: 0x3535B, size: 0x8, addend: 0x0, symName: __ZNSt3__18distanceB7v160006INS_13move_iteratorIPPN4sdds13CustomerOrderEEEEENS_15iterator_traitsIT_E15difference_typeES8_S8_, symObjAddr: 0x2EC0, symBinAddr: 0x10000DF24, symSize: 0x3C }
  - { offsetInCU: 0x7019, offset: 0x3539E, size: 0x8, addend: 0x0, symName: __ZNSt3__110__distanceB7v160006INS_13move_iteratorIPPN4sdds13CustomerOrderEEEEENS_15iterator_traitsIT_E15difference_typeES8_S8_NS_26random_access_iterator_tagE, symObjAddr: 0x2FF8, symBinAddr: 0x10000E05C, symSize: 0x30 }
  - { offsetInCU: 0x7067, offset: 0x353EC, size: 0x8, addend: 0x0, symName: __ZNSt3__1miB7v160006IPPN4sdds13CustomerOrderES4_EEDTmicldtfp_4baseEcldtfp0_4baseEERKNS_13move_iteratorIT_EERKNS6_IT0_EE, symObjAddr: 0x3028, symBinAddr: 0x10000E08C, symSize: 0x48 }
  - { offsetInCU: 0x70B6, offset: 0x3543B, size: 0x8, addend: 0x0, symName: __ZNSt3__113move_backwardB7v160006IPPN4sdds13CustomerOrderES4_EET0_T_S6_S5_, symObjAddr: 0x3310, symBinAddr: 0x10000E290, symSize: 0x40 }
  - { offsetInCU: 0x7110, offset: 0x35495, size: 0x8, addend: 0x0, symName: __ZNSt3__115__move_backwardB7v160006INS_17_ClassicAlgPolicyEPPN4sdds13CustomerOrderES5_S5_EENS_4pairIT0_T2_EES7_T1_S8_, symObjAddr: 0x3350, symBinAddr: 0x10000E2D0, symSize: 0x44 }
  - { offsetInCU: 0x717C, offset: 0x35501, size: 0x8, addend: 0x0, symName: __ZNSt3__123__dispatch_copy_or_moveB7v160006INS_17_ClassicAlgPolicyENS_20__move_backward_loopIS1_EENS_23__move_backward_trivialEPPN4sdds13CustomerOrderES8_S8_EENS_4pairIT2_T4_EESA_T3_SB_, symObjAddr: 0x3394, symBinAddr: 0x10000E314, symSize: 0x44 }
  - { offsetInCU: 0x71FA, offset: 0x3557F, size: 0x8, addend: 0x0, symName: __ZNSt3__121__unwrap_and_dispatchB7v160006INS_10__overloadINS_20__move_backward_loopINS_17_ClassicAlgPolicyEEENS_23__move_backward_trivialEEEPPN4sdds13CustomerOrderESA_SA_Li0EEENS_4pairIT0_T2_EESC_T1_SD_, symObjAddr: 0x33D8, symBinAddr: 0x10000E358, symSize: 0xB4 }
  - { offsetInCU: 0x72D0, offset: 0x35655, size: 0x8, addend: 0x0, symName: __ZNSt3__128__copy_backward_trivial_implB7v160006IPN4sdds13CustomerOrderES3_EENS_4pairIPT_PT0_EES6_S6_S8_, symObjAddr: 0x34D4, symBinAddr: 0x10000E454, symSize: 0x94 }
  - { offsetInCU: 0x7338, offset: 0x356BD, size: 0x8, addend: 0x0, symName: __ZNSt3__19make_pairB7v160006IRPPN4sdds13CustomerOrderES5_EENS_4pairINS_18__unwrap_ref_decayIT_E4typeENS7_IT0_E4typeEEEOS8_OSB_, symObjAddr: 0x3568, symBinAddr: 0x10000E4E8, symSize: 0x38 }
  - { offsetInCU: 0x7387, offset: 0x3570C, size: 0x8, addend: 0x0, symName: __ZNSt3__119__allocate_at_leastB7v160006INS_9allocatorIPN4sdds13CustomerOrderEEEEENS_19__allocation_resultINS_16allocator_traitsIT_E7pointerEEERS8_m, symObjAddr: 0x37A8, symBinAddr: 0x10000E6A0, symSize: 0x40 }
  - { offsetInCU: 0x97F7, offset: 0x37B7C, size: 0x8, addend: 0x0, symName: __ZNSt3__15dequeIN4sdds13CustomerOrderENS_9allocatorIS2_EEEC1B7v160006Ev, symObjAddr: 0x0, symBinAddr: 0x10000B6D8, symSize: 0x2C }
  - { offsetInCU: 0x9821, offset: 0x37BA6, size: 0x8, addend: 0x0, symName: __ZNSt3__15dequeIN4sdds13CustomerOrderENS_9allocatorIS2_EEED1B7v160006Ev, symObjAddr: 0x2C, symBinAddr: 0x10000B704, symSize: 0x2C }
  - { offsetInCU: 0x986E, offset: 0x37BF3, size: 0x8, addend: 0x0, symName: __ZN4sdds11WorkstationC2ERKNSt3__112basic_stringIcNS1_11char_traitsIcEENS1_9allocatorIcEEEE, symObjAddr: 0x58, symBinAddr: 0x10000B730, symSize: 0x44 }
  - { offsetInCU: 0x98A8, offset: 0x37C2D, size: 0x8, addend: 0x0, symName: __ZN4sdds11WorkstationC1ERKNSt3__112basic_stringIcNS1_11char_traitsIcEENS1_9allocatorIcEEEE, symObjAddr: 0x9C, symBinAddr: 0x10000B774, symSize: 0x34 }
  - { offsetInCU: 0x98E2, offset: 0x37C67, size: 0x8, addend: 0x0, symName: __ZN4sdds11Workstation4fillERNSt3__113basic_ostreamIcNS1_11char_traitsIcEEEE, symObjAddr: 0xD0, symBinAddr: 0x10000B7A8, symSize: 0x5C }
  - { offsetInCU: 0x9934, offset: 0x37CB9, size: 0x8, addend: 0x0, symName: __ZN4sdds11Workstation18attemptToMoveOrderEv, symObjAddr: 0x1AC, symBinAddr: 0x10000B804, symSize: 0x140 }
  - { offsetInCU: 0x9986, offset: 0x37D0B, size: 0x8, addend: 0x0, symName: __ZNSt3__15dequeIN4sdds13CustomerOrderENS_9allocatorIS2_EEE9push_backEOS2_, symObjAddr: 0x2EC, symBinAddr: 0x10000B944, symSize: 0xA0 }
  - { offsetInCU: 0x99CB, offset: 0x37D50, size: 0x8, addend: 0x0, symName: __ZN4sdds11WorkstationpLEONS_13CustomerOrderE, symObjAddr: 0x438, symBinAddr: 0x10000B9E4, symSize: 0x38 }
  - { offsetInCU: 0x9A01, offset: 0x37D86, size: 0x8, addend: 0x0, symName: __ZN4sdds11Workstation14setNextStationEPS0_, symObjAddr: 0x470, symBinAddr: 0x10000BA1C, symSize: 0x20 }
  - { offsetInCU: 0x9A37, offset: 0x37DBC, size: 0x8, addend: 0x0, symName: __ZNK4sdds11Workstation14getNextStationEv, symObjAddr: 0x490, symBinAddr: 0x10000BA3C, symSize: 0x18 }
  - { offsetInCU: 0x9A5F, offset: 0x37DE4, size: 0x8, addend: 0x0, symName: __ZNK4sdds11Workstation7displayERNSt3__113basic_ostreamIcNS1_11char_traitsIcEEEE, symObjAddr: 0x4A8, symBinAddr: 0x10000BA54, symSize: 0xAC }
  - { offsetInCU: 0x9A95, offset: 0x37E1A, size: 0x8, addend: 0x0, symName: __ZNSt3__15dequeIN4sdds13CustomerOrderENS_9allocatorIS2_EEEC2B7v160006Ev, symObjAddr: 0x66C, symBinAddr: 0x10000BB00, symSize: 0x50 }
  - { offsetInCU: 0x9ABF, offset: 0x37E44, size: 0x8, addend: 0x0, symName: __ZNSt3__114__split_bufferIPN4sdds13CustomerOrderENS_9allocatorIS3_EEEC1Ev, symObjAddr: 0x6BC, symBinAddr: 0x10000BB50, symSize: 0x2C }
  - { offsetInCU: 0x9AF5, offset: 0x37E7A, size: 0x8, addend: 0x0, symName: __ZNSt3__117__compressed_pairImNS_9allocatorIN4sdds13CustomerOrderEEEEC1B7v160006IiNS_18__default_init_tagEEEOT_OT0_, symObjAddr: 0x6E8, symBinAddr: 0x10000BB7C, symSize: 0x3C }
  - { offsetInCU: 0x9B4D, offset: 0x37ED2, size: 0x8, addend: 0x0, symName: __ZNSt3__114__split_bufferIPN4sdds13CustomerOrderENS_9allocatorIS3_EEEC2Ev, symObjAddr: 0x730, symBinAddr: 0x10000BBB8, symSize: 0x50 }
  - { offsetInCU: 0x9B7E, offset: 0x37F03, size: 0x8, addend: 0x0, symName: __ZNSt3__117__compressed_pairIPPN4sdds13CustomerOrderENS_9allocatorIS3_EEEC1B7v160006IDnNS_18__default_init_tagEEEOT_OT0_, symObjAddr: 0x780, symBinAddr: 0x10000BC08, symSize: 0x3C }
  - { offsetInCU: 0x9BD6, offset: 0x37F5B, size: 0x8, addend: 0x0, symName: __ZNSt3__117__compressed_pairIPPN4sdds13CustomerOrderENS_9allocatorIS3_EEEC2B7v160006IDnNS_18__default_init_tagEEEOT_OT0_, symObjAddr: 0x7BC, symBinAddr: 0x10000BC44, symSize: 0x40 }
  - { offsetInCU: 0x9C2E, offset: 0x37FB3, size: 0x8, addend: 0x0, symName: __ZNSt3__122__compressed_pair_elemIPPN4sdds13CustomerOrderELi0ELb0EEC2B7v160006IDnvEEOT_, symObjAddr: 0x7FC, symBinAddr: 0x10000BC84, symSize: 0x1C }
  - { offsetInCU: 0x9C70, offset: 0x37FF5, size: 0x8, addend: 0x0, symName: __ZNSt3__122__compressed_pair_elemINS_9allocatorIPN4sdds13CustomerOrderEEELi1ELb1EEC2B7v160006ENS_18__default_init_tagE, symObjAddr: 0x818, symBinAddr: 0x10000BCA0, symSize: 0x2C }
  - { offsetInCU: 0x9CA5, offset: 0x3802A, size: 0x8, addend: 0x0, symName: __ZNSt3__19allocatorIPN4sdds13CustomerOrderEEC2B7v160006Ev, symObjAddr: 0x844, symBinAddr: 0x10000BCCC, symSize: 0x2C }
  - { offsetInCU: 0x9CCF, offset: 0x38054, size: 0x8, addend: 0x0, symName: __ZNSt3__116__non_trivial_ifILb1ENS_9allocatorIPN4sdds13CustomerOrderEEEEC2B7v160006Ev, symObjAddr: 0x870, symBinAddr: 0x10000BCF8, symSize: 0x14 }
  - { offsetInCU: 0x9CF9, offset: 0x3807E, size: 0x8, addend: 0x0, symName: __ZNSt3__117__compressed_pairImNS_9allocatorIN4sdds13CustomerOrderEEEEC2B7v160006IiNS_18__default_init_tagEEEOT_OT0_, symObjAddr: 0x884, symBinAddr: 0x10000BD0C, symSize: 0x40 }
  - { offsetInCU: 0x9D51, offset: 0x380D6, size: 0x8, addend: 0x0, symName: __ZNSt3__122__compressed_pair_elemImLi0ELb0EEC2B7v160006IivEEOT_, symObjAddr: 0x8C4, symBinAddr: 0x10000BD4C, symSize: 0x24 }
  - { offsetInCU: 0x9D93, offset: 0x38118, size: 0x8, addend: 0x0, symName: __ZNSt3__122__compressed_pair_elemINS_9allocatorIN4sdds13CustomerOrderEEELi1ELb1EEC2B7v160006ENS_18__default_init_tagE, symObjAddr: 0x8E8, symBinAddr: 0x10000BD70, symSize: 0x2C }
  - { offsetInCU: 0x9DC8, offset: 0x3814D, size: 0x8, addend: 0x0, symName: __ZNSt3__19allocatorIN4sdds13CustomerOrderEEC2B7v160006Ev, symObjAddr: 0x914, symBinAddr: 0x10000BD9C, symSize: 0x2C }
  - { offsetInCU: 0x9DF2, offset: 0x38177, size: 0x8, addend: 0x0, symName: __ZNSt3__116__non_trivial_ifILb1ENS_9allocatorIN4sdds13CustomerOrderEEEEC2B7v160006Ev, symObjAddr: 0x940, symBinAddr: 0x10000BDC8, symSize: 0x14 }
  - { offsetInCU: 0x9E1C, offset: 0x381A1, size: 0x8, addend: 0x0, symName: __ZNSt3__15dequeIN4sdds13CustomerOrderENS_9allocatorIS2_EEED2B7v160006Ev, symObjAddr: 0x954, symBinAddr: 0x10000BDDC, symSize: 0x9C }
  - { offsetInCU: 0x9E72, offset: 0x381F7, size: 0x8, addend: 0x0, symName: __ZNSt3__15dequeIN4sdds13CustomerOrderENS_9allocatorIS2_EEE5clearEv, symObjAddr: 0x9F0, symBinAddr: 0x10000BE78, symSize: 0x180 }
  - { offsetInCU: 0x9ECC, offset: 0x38251, size: 0x8, addend: 0x0, symName: __ZNSt3__114__split_bufferIPN4sdds13CustomerOrderENS_9allocatorIS3_EEE3endB7v160006Ev, symObjAddr: 0xB88, symBinAddr: 0x10000BFF8, symSize: 0x18 }
  - { offsetInCU: 0x9EF2, offset: 0x38277, size: 0x8, addend: 0x0, symName: __ZNSt3__114__split_bufferIPN4sdds13CustomerOrderENS_9allocatorIS3_EEED1Ev, symObjAddr: 0xBFC, symBinAddr: 0x10000C010, symSize: 0x2C }
  - { offsetInCU: 0x9F1E, offset: 0x382A3, size: 0x8, addend: 0x0, symName: __ZNSt3__15dequeIN4sdds13CustomerOrderENS_9allocatorIS2_EEE5beginB7v160006Ev, symObjAddr: 0xC28, symBinAddr: 0x10000C03C, symSize: 0xB8 }
  - { offsetInCU: 0x9F53, offset: 0x382D8, size: 0x8, addend: 0x0, symName: __ZNSt3__15dequeIN4sdds13CustomerOrderENS_9allocatorIS2_EEE3endB7v160006Ev, symObjAddr: 0xCE0, symBinAddr: 0x10000C0F4, symSize: 0xBC }
  - { offsetInCU: 0x9F97, offset: 0x3831C, size: 0x8, addend: 0x0, symName: __ZNKSt3__116__deque_iteratorIN4sdds13CustomerOrderEPS2_RS2_PS3_lLl64EEdeB7v160006Ev, symObjAddr: 0xDFC, symBinAddr: 0x10000C1E4, symSize: 0x18 }
  - { offsetInCU: 0x9FBD, offset: 0x38342, size: 0x8, addend: 0x0, symName: __ZNSt3__116__deque_iteratorIN4sdds13CustomerOrderEPS2_RS2_PS3_lLl64EEppB7v160006Ev, symObjAddr: 0xE14, symBinAddr: 0x10000C1FC, symSize: 0x70 }
  - { offsetInCU: 0x9FE3, offset: 0x38368, size: 0x8, addend: 0x0, symName: __ZNKSt3__114__split_bufferIPN4sdds13CustomerOrderENS_9allocatorIS3_EEE4sizeB7v160006Ev, symObjAddr: 0xEAC, symBinAddr: 0x10000C26C, symSize: 0x28 }
  - { offsetInCU: 0xA009, offset: 0x3838E, size: 0x8, addend: 0x0, symName: __ZNKSt3__114__split_bufferIPN4sdds13CustomerOrderENS_9allocatorIS3_EEE5emptyB7v160006Ev, symObjAddr: 0xF18, symBinAddr: 0x10000C294, symSize: 0x28 }
  - { offsetInCU: 0xA02F, offset: 0x383B4, size: 0x8, addend: 0x0, symName: __ZNSt3__116__deque_iteratorIN4sdds13CustomerOrderEPS2_RS2_PS3_lLl64EEC1B7v160006ES5_S3_, symObjAddr: 0xF40, symBinAddr: 0x10000C2BC, symSize: 0x3C }
  - { offsetInCU: 0xA077, offset: 0x383FC, size: 0x8, addend: 0x0, symName: __ZNSt3__116__deque_iteratorIN4sdds13CustomerOrderEPS2_RS2_PS3_lLl64EEC2B7v160006ES5_S3_, symObjAddr: 0xF7C, symBinAddr: 0x10000C2F8, symSize: 0x2C }
  - { offsetInCU: 0xA0BF, offset: 0x38444, size: 0x8, addend: 0x0, symName: __ZNSt3__114__split_bufferIPN4sdds13CustomerOrderENS_9allocatorIS3_EEED2Ev, symObjAddr: 0x12AC, symBinAddr: 0x10000C354, symSize: 0x8C }
  - { offsetInCU: 0xA0EB, offset: 0x38470, size: 0x8, addend: 0x0, symName: __ZNSt3__114__split_bufferIPN4sdds13CustomerOrderENS_9allocatorIS3_EEE5clearB7v160006Ev, symObjAddr: 0x1338, symBinAddr: 0x10000C3E0, symSize: 0x28 }
  - { offsetInCU: 0xA111, offset: 0x38496, size: 0x8, addend: 0x0, symName: __ZNSt3__116allocator_traitsINS_9allocatorIPN4sdds13CustomerOrderEEEE10deallocateB7v160006ERS5_PS4_m, symObjAddr: 0x1360, symBinAddr: 0x10000C408, symSize: 0x34 }
  - { offsetInCU: 0xA153, offset: 0x384D8, size: 0x8, addend: 0x0, symName: __ZNSt3__114__split_bufferIPN4sdds13CustomerOrderENS_9allocatorIS3_EEE7__allocB7v160006Ev, symObjAddr: 0x1394, symBinAddr: 0x10000C43C, symSize: 0x28 }
  - { offsetInCU: 0xA179, offset: 0x384FE, size: 0x8, addend: 0x0, symName: __ZNKSt3__114__split_bufferIPN4sdds13CustomerOrderENS_9allocatorIS3_EEE8capacityB7v160006Ev, symObjAddr: 0x13BC, symBinAddr: 0x10000C464, symSize: 0x40 }
  - { offsetInCU: 0xA19F, offset: 0x38524, size: 0x8, addend: 0x0, symName: __ZNSt3__114__split_bufferIPN4sdds13CustomerOrderENS_9allocatorIS3_EEE17__destruct_at_endB7v160006EPS3_, symObjAddr: 0x13FC, symBinAddr: 0x10000C4A4, symSize: 0x2C }
  - { offsetInCU: 0xA1D3, offset: 0x38558, size: 0x8, addend: 0x0, symName: __ZNSt3__114__split_bufferIPN4sdds13CustomerOrderENS_9allocatorIS3_EEE17__destruct_at_endB7v160006EPS3_NS_17integral_constantIbLb0EEE, symObjAddr: 0x1428, symBinAddr: 0x10000C4D0, symSize: 0x80 }
  - { offsetInCU: 0xA213, offset: 0x38598, size: 0x8, addend: 0x0, symName: __ZNSt3__116allocator_traitsINS_9allocatorIPN4sdds13CustomerOrderEEEE7destroyB7v160006IS4_vEEvRS5_PT_, symObjAddr: 0x14A8, symBinAddr: 0x10000C550, symSize: 0x2C }
  - { offsetInCU: 0xA250, offset: 0x385D5, size: 0x8, addend: 0x0, symName: __ZNSt3__19allocatorIPN4sdds13CustomerOrderEE7destroyB7v160006EPS3_, symObjAddr: 0x14E8, symBinAddr: 0x10000C590, symSize: 0x14 }
  - { offsetInCU: 0xA284, offset: 0x38609, size: 0x8, addend: 0x0, symName: __ZNSt3__19allocatorIPN4sdds13CustomerOrderEE10deallocateB7v160006EPS3_m, symObjAddr: 0x14FC, symBinAddr: 0x10000C5A4, symSize: 0x40 }
  - { offsetInCU: 0xA2C6, offset: 0x3864B, size: 0x8, addend: 0x0, symName: __ZNSt3__117__compressed_pairIPPN4sdds13CustomerOrderENS_9allocatorIS3_EEE6secondB7v160006Ev, symObjAddr: 0x153C, symBinAddr: 0x10000C5E4, symSize: 0x24 }
  - { offsetInCU: 0xA2EC, offset: 0x38671, size: 0x8, addend: 0x0, symName: __ZNSt3__122__compressed_pair_elemINS_9allocatorIPN4sdds13CustomerOrderEEELi1ELb1EE5__getB7v160006Ev, symObjAddr: 0x1560, symBinAddr: 0x10000C608, symSize: 0x14 }
  - { offsetInCU: 0xA312, offset: 0x38697, size: 0x8, addend: 0x0, symName: __ZNKSt3__114__split_bufferIPN4sdds13CustomerOrderENS_9allocatorIS3_EEE9__end_capB7v160006Ev, symObjAddr: 0x1574, symBinAddr: 0x10000C61C, symSize: 0x28 }
  - { offsetInCU: 0xA338, offset: 0x386BD, size: 0x8, addend: 0x0, symName: __ZNKSt3__117__compressed_pairIPPN4sdds13CustomerOrderENS_9allocatorIS3_EEE5firstB7v160006Ev, symObjAddr: 0x159C, symBinAddr: 0x10000C644, symSize: 0x24 }
  - { offsetInCU: 0xA35E, offset: 0x386E3, size: 0x8, addend: 0x0, symName: __ZNKSt3__122__compressed_pair_elemIPPN4sdds13CustomerOrderELi0ELb0EE5__getB7v160006Ev, symObjAddr: 0x15C0, symBinAddr: 0x10000C668, symSize: 0x14 }
  - { offsetInCU: 0xA384, offset: 0x38709, size: 0x8, addend: 0x0, symName: __ZNKSt3__15dequeIN4sdds13CustomerOrderENS_9allocatorIS2_EEE12__back_spareB7v160006Ev, symObjAddr: 0x15D4, symBinAddr: 0x10000C67C, symSize: 0x54 }
  - { offsetInCU: 0xA3AA, offset: 0x3872F, size: 0x8, addend: 0x0, symName: __ZNSt3__15dequeIN4sdds13CustomerOrderENS_9allocatorIS2_EEE19__add_back_capacityEv, symObjAddr: 0x1628, symBinAddr: 0x10000C6D0, symSize: 0x314 }
  - { offsetInCU: 0xA45E, offset: 0x387E3, size: 0x8, addend: 0x0, symName: __ZNSt3__116allocator_traitsINS_9allocatorIN4sdds13CustomerOrderEEEE9constructB7v160006IS3_JS3_EvEEvRS4_PT_DpOT0_, symObjAddr: 0x193C, symBinAddr: 0x10000C9E4, symSize: 0x34 }
  - { offsetInCU: 0xA4B5, offset: 0x3883A, size: 0x8, addend: 0x0, symName: __ZNKSt3__15dequeIN4sdds13CustomerOrderENS_9allocatorIS2_EEE10__capacityB7v160006Ev, symObjAddr: 0x1970, symBinAddr: 0x10000CA18, symSize: 0x60 }
  - { offsetInCU: 0xA4DB, offset: 0x38860, size: 0x8, addend: 0x0, symName: __ZNSt3__114__split_bufferIPN4sdds13CustomerOrderENS_9allocatorIS3_EEE9push_backB7v160006ERKS3_, symObjAddr: 0x19E8, symBinAddr: 0x10000CA78, symSize: 0x260 }
  - { offsetInCU: 0xA552, offset: 0x388D7, size: 0x8, addend: 0x0, symName: __ZNKSt3__114__split_bufferIPN4sdds13CustomerOrderENS_9allocatorIS3_EEE12__back_spareB7v160006Ev, symObjAddr: 0x1C48, symBinAddr: 0x10000CCD8, symSize: 0x40 }
  - { offsetInCU: 0xA578, offset: 0x388FD, size: 0x8, addend: 0x0, symName: __ZNSt3__114__split_bufferIPN4sdds13CustomerOrderENS_9allocatorIS3_EEE9push_backEOS3_, symObjAddr: 0x1C88, symBinAddr: 0x10000CD18, symSize: 0x260 }
  - { offsetInCU: 0xA5EF, offset: 0x38974, size: 0x8, addend: 0x0, symName: __ZNSt3__116allocator_traitsINS_9allocatorIN4sdds13CustomerOrderEEEE8allocateB7v160006ERS4_m, symObjAddr: 0x1EE8, symBinAddr: 0x10000CF78, symSize: 0x2C }
  - { offsetInCU: 0xA622, offset: 0x389A7, size: 0x8, addend: 0x0, symName: __ZNSt3__114__split_bufferIPN4sdds13CustomerOrderENS_9allocatorIS3_EEE10push_frontEOS3_, symObjAddr: 0x1F14, symBinAddr: 0x10000CFA4, symSize: 0x25C }
  - { offsetInCU: 0xA699, offset: 0x38A1E, size: 0x8, addend: 0x0, symName: __ZNSt3__114__split_bufferIPN4sdds13CustomerOrderERNS_9allocatorIS3_EEEC1EmmS6_, symObjAddr: 0x219C, symBinAddr: 0x10000D200, symSize: 0x44 }
  - { offsetInCU: 0xA6F4, offset: 0x38A79, size: 0x8, addend: 0x0, symName: __ZNSt3__122__allocator_destructorINS_9allocatorIN4sdds13CustomerOrderEEEEC1B7v160006ERS4_m, symObjAddr: 0x21E0, symBinAddr: 0x10000D244, symSize: 0x3C }
  - { offsetInCU: 0xA7B7, offset: 0x38B3C, size: 0x8, addend: 0x0, symName: __ZNSt3__110unique_ptrIPN4sdds13CustomerOrderENS_22__allocator_destructorINS_9allocatorIS2_EEEEEC1B7v160006ILb1EvEES3_NS_16__dependent_typeINS_27__unique_ptr_deleter_sfinaeIS7_EEXT_EE20__good_rval_ref_typeE, symObjAddr: 0x221C, symBinAddr: 0x10000D280, symSize: 0x3C }
  - { offsetInCU: 0xA808, offset: 0x38B8D, size: 0x8, addend: 0x0, symName: __ZNSt3__114__split_bufferIPN4sdds13CustomerOrderERNS_9allocatorIS3_EEE9push_backEOS3_, symObjAddr: 0x2258, symBinAddr: 0x10000D2BC, symSize: 0x260 }
  - { offsetInCU: 0xA87F, offset: 0x38C04, size: 0x8, addend: 0x0, symName: __ZNKSt3__110unique_ptrIPN4sdds13CustomerOrderENS_22__allocator_destructorINS_9allocatorIS2_EEEEE3getB7v160006Ev, symObjAddr: 0x24B8, symBinAddr: 0x10000D51C, symSize: 0x28 }
  - { offsetInCU: 0xA8A5, offset: 0x38C2A, size: 0x8, addend: 0x0, symName: __ZNSt3__110unique_ptrIPN4sdds13CustomerOrderENS_22__allocator_destructorINS_9allocatorIS2_EEEEE7releaseB7v160006Ev, symObjAddr: 0x24E0, symBinAddr: 0x10000D544, symSize: 0x44 }
  - { offsetInCU: 0xA8DA, offset: 0x38C5F, size: 0x8, addend: 0x0, symName: __ZNSt3__114__split_bufferIPN4sdds13CustomerOrderERNS_9allocatorIS3_EEE10push_frontERKS3_, symObjAddr: 0x2524, symBinAddr: 0x10000D588, symSize: 0x25C }
  - { offsetInCU: 0xA951, offset: 0x38CD6, size: 0x8, addend: 0x0, symName: __ZNSt3__114__split_bufferIPN4sdds13CustomerOrderENS_9allocatorIS3_EEE9__end_capB7v160006Ev, symObjAddr: 0x27BC, symBinAddr: 0x10000D820, symSize: 0x28 }
  - { offsetInCU: 0xA977, offset: 0x38CFC, size: 0x8, addend: 0x0, symName: __ZNSt3__114__split_bufferIPN4sdds13CustomerOrderERNS_9allocatorIS3_EEE9__end_capB7v160006Ev, symObjAddr: 0x27E4, symBinAddr: 0x10000D848, symSize: 0x28 }
  - { offsetInCU: 0xA99D, offset: 0x38D22, size: 0x8, addend: 0x0, symName: __ZNSt3__110unique_ptrIPN4sdds13CustomerOrderENS_22__allocator_destructorINS_9allocatorIS2_EEEEED1B7v160006Ev, symObjAddr: 0x280C, symBinAddr: 0x10000D870, symSize: 0x2C }
  - { offsetInCU: 0xA9C7, offset: 0x38D4C, size: 0x8, addend: 0x0, symName: __ZNSt3__114__split_bufferIPN4sdds13CustomerOrderERNS_9allocatorIS3_EEED1Ev, symObjAddr: 0x2838, symBinAddr: 0x10000D89C, symSize: 0x2C }
  - { offsetInCU: 0xA9F3, offset: 0x38D78, size: 0x8, addend: 0x0, symName: __ZNSt3__114__split_bufferIPN4sdds13CustomerOrderERNS_9allocatorIS3_EEE18__construct_at_endINS_13move_iteratorIPS3_EEEENS_9enable_ifIXsr27__is_cpp17_forward_iteratorIT_EE5valueEvE4typeESD_SD_, symObjAddr: 0x28A4, symBinAddr: 0x10000D908, symSize: 0xFC }
  - { offsetInCU: 0xAA4E, offset: 0x38DD3, size: 0x8, addend: 0x0, symName: __ZNSt3__113move_iteratorIPPN4sdds13CustomerOrderEEC1B7v160006ES4_, symObjAddr: 0x29A0, symBinAddr: 0x10000DA04, symSize: 0x34 }
  - { offsetInCU: 0xAA86, offset: 0x38E0B, size: 0x8, addend: 0x0, symName: __ZNSt3__116allocator_traitsINS_9allocatorIPN4sdds13CustomerOrderEEEE9constructB7v160006IS4_JRKS4_EvEEvRS5_PT_DpOT0_, symObjAddr: 0x29D4, symBinAddr: 0x10000DA38, symSize: 0x34 }
  - { offsetInCU: 0xAB00, offset: 0x38E85, size: 0x8, addend: 0x0, symName: __ZNKSt3__114__move_trivialclB7v160006IPN4sdds13CustomerOrderES4_Li0EEENS_4pairIPT_PT0_EES7_S7_S9_, symObjAddr: 0x2BA4, symBinAddr: 0x10000DC08, symSize: 0x48 }
  - { offsetInCU: 0xAB6E, offset: 0x38EF3, size: 0x8, addend: 0x0, symName: __ZNSt3__14pairIPPN4sdds13CustomerOrderES4_EC1B7v160006IRS4_S4_LPv0EEEOT_OT0_, symObjAddr: 0x2D6C, symBinAddr: 0x10000DDD0, symSize: 0x3C }
  - { offsetInCU: 0xABCC, offset: 0x38F51, size: 0x8, addend: 0x0, symName: __ZNSt3__14pairIPPN4sdds13CustomerOrderES4_EC2B7v160006IRS4_S4_LPv0EEEOT_OT0_, symObjAddr: 0x2DA8, symBinAddr: 0x10000DE0C, symSize: 0x34 }
  - { offsetInCU: 0xAC2A, offset: 0x38FAF, size: 0x8, addend: 0x0, symName: __ZNSt3__118__unwrap_iter_implIPPN4sdds13CustomerOrderELb1EE8__unwrapB7v160006ES4_, symObjAddr: 0x2DDC, symBinAddr: 0x10000DE40, symSize: 0x24 }
  - { offsetInCU: 0xAC4D, offset: 0x38FD2, size: 0x8, addend: 0x0, symName: __ZNSt3__14pairIPPN4sdds13CustomerOrderES4_EC1B7v160006IS4_S4_LPv0EEEOT_OT0_, symObjAddr: 0x2E00, symBinAddr: 0x10000DE64, symSize: 0x3C }
  - { offsetInCU: 0xACAB, offset: 0x39030, size: 0x8, addend: 0x0, symName: __ZNSt3__14pairIPPN4sdds13CustomerOrderES4_EC2B7v160006IS4_S4_LPv0EEEOT_OT0_, symObjAddr: 0x2E3C, symBinAddr: 0x10000DEA0, symSize: 0x34 }
  - { offsetInCU: 0xAD09, offset: 0x3908E, size: 0x8, addend: 0x0, symName: __ZNSt3__118__unwrap_iter_implIPPN4sdds13CustomerOrderELb1EE8__rewrapB7v160006ES4_S4_, symObjAddr: 0x2E70, symBinAddr: 0x10000DED4, symSize: 0x50 }
  - { offsetInCU: 0xAD44, offset: 0x390C9, size: 0x8, addend: 0x0, symName: __ZNSt3__114__split_bufferIPN4sdds13CustomerOrderERNS_9allocatorIS3_EEE21_ConstructTransactionC1B7v160006EPPS3_m, symObjAddr: 0x2EFC, symBinAddr: 0x10000DF60, symSize: 0x3C }
  - { offsetInCU: 0xAD8A, offset: 0x3910F, size: 0x8, addend: 0x0, symName: __ZNSt3__116allocator_traitsINS_9allocatorIPN4sdds13CustomerOrderEEEE9constructB7v160006IS4_JS4_EvEEvRS5_PT_DpOT0_, symObjAddr: 0x2F38, symBinAddr: 0x10000DF9C, symSize: 0x34 }
  - { offsetInCU: 0xADE1, offset: 0x39166, size: 0x8, addend: 0x0, symName: __ZNSt3__114__split_bufferIPN4sdds13CustomerOrderERNS_9allocatorIS3_EEE7__allocB7v160006Ev, symObjAddr: 0x2F6C, symBinAddr: 0x10000DFD0, symSize: 0x28 }
  - { offsetInCU: 0xAE07, offset: 0x3918C, size: 0x8, addend: 0x0, symName: __ZNKSt3__113move_iteratorIPPN4sdds13CustomerOrderEEdeB7v160006Ev, symObjAddr: 0x2F94, symBinAddr: 0x10000DFF8, symSize: 0x18 }
  - { offsetInCU: 0xAE2D, offset: 0x391B2, size: 0x8, addend: 0x0, symName: __ZNSt3__113move_iteratorIPPN4sdds13CustomerOrderEEppB7v160006Ev, symObjAddr: 0x2FAC, symBinAddr: 0x10000E010, symSize: 0x20 }
  - { offsetInCU: 0xAE53, offset: 0x391D8, size: 0x8, addend: 0x0, symName: __ZNSt3__114__split_bufferIPN4sdds13CustomerOrderERNS_9allocatorIS3_EEE21_ConstructTransactionD1B7v160006Ev, symObjAddr: 0x2FCC, symBinAddr: 0x10000E030, symSize: 0x2C }
  - { offsetInCU: 0xAE7D, offset: 0x39202, size: 0x8, addend: 0x0, symName: __ZNKSt3__113move_iteratorIPPN4sdds13CustomerOrderEE4baseB7v160006Ev, symObjAddr: 0x3070, symBinAddr: 0x10000E0D4, symSize: 0x18 }
  - { offsetInCU: 0xAEA3, offset: 0x39228, size: 0x8, addend: 0x0, symName: __ZNSt3__114__split_bufferIPN4sdds13CustomerOrderERNS_9allocatorIS3_EEE21_ConstructTransactionC2B7v160006EPPS3_m, symObjAddr: 0x3088, symBinAddr: 0x10000E0EC, symSize: 0x44 }
  - { offsetInCU: 0xAEE9, offset: 0x3926E, size: 0x8, addend: 0x0, symName: __ZNSt3__19allocatorIPN4sdds13CustomerOrderEE9constructB7v160006IS3_JS3_EEEvPT_DpOT0_, symObjAddr: 0x30CC, symBinAddr: 0x10000E130, symSize: 0x28 }
  - { offsetInCU: 0xAF3F, offset: 0x392C4, size: 0x8, addend: 0x0, symName: __ZNSt3__117__compressed_pairIPPN4sdds13CustomerOrderERNS_9allocatorIS3_EEE6secondB7v160006Ev, symObjAddr: 0x30F4, symBinAddr: 0x10000E158, symSize: 0x28 }
  - { offsetInCU: 0xAF65, offset: 0x392EA, size: 0x8, addend: 0x0, symName: __ZNSt3__122__compressed_pair_elemIRNS_9allocatorIPN4sdds13CustomerOrderEEELi1ELb0EE5__getB7v160006Ev, symObjAddr: 0x311C, symBinAddr: 0x10000E180, symSize: 0x18 }
  - { offsetInCU: 0xAF8B, offset: 0x39310, size: 0x8, addend: 0x0, symName: __ZNSt3__114__split_bufferIPN4sdds13CustomerOrderERNS_9allocatorIS3_EEE21_ConstructTransactionD2B7v160006Ev, symObjAddr: 0x3134, symBinAddr: 0x10000E198, symSize: 0x20 }
  - { offsetInCU: 0xAFB5, offset: 0x3933A, size: 0x8, addend: 0x0, symName: __ZNSt3__113move_iteratorIPPN4sdds13CustomerOrderEEC2B7v160006ES4_, symObjAddr: 0x3154, symBinAddr: 0x10000E1B8, symSize: 0x20 }
  - { offsetInCU: 0xAFED, offset: 0x39372, size: 0x8, addend: 0x0, symName: __ZNSt3__19allocatorIPN4sdds13CustomerOrderEE9constructB7v160006IS3_JRKS3_EEEvPT_DpOT0_, symObjAddr: 0x3174, symBinAddr: 0x10000E1D8, symSize: 0x28 }
  - { offsetInCU: 0xB043, offset: 0x393C8, size: 0x8, addend: 0x0, symName: __ZNSt3__19allocatorIN4sdds13CustomerOrderEE8allocateB7v160006Em, symObjAddr: 0x319C, symBinAddr: 0x10000E200, symSize: 0x58 }
  - { offsetInCU: 0xB081, offset: 0x39406, size: 0x8, addend: 0x0, symName: __ZNSt3__116allocator_traitsINS_9allocatorIN4sdds13CustomerOrderEEEE8max_sizeB7v160006IS4_vEEmRKS4_, symObjAddr: 0x31F4, symBinAddr: 0x10000E258, symSize: 0x24 }
  - { offsetInCU: 0xB0AF, offset: 0x39434, size: 0x8, addend: 0x0, symName: __ZNKSt3__19allocatorIN4sdds13CustomerOrderEE8max_sizeB7v160006Ev, symObjAddr: 0x32AC, symBinAddr: 0x10000E27C, symSize: 0x14 }
  - { offsetInCU: 0xB0DF, offset: 0x39464, size: 0x8, addend: 0x0, symName: __ZNKSt3__123__move_backward_trivialclB7v160006IPN4sdds13CustomerOrderES4_Li0EEENS_4pairIPT_PT0_EES7_S7_S9_, symObjAddr: 0x348C, symBinAddr: 0x10000E40C, symSize: 0x48 }
  - { offsetInCU: 0xB148, offset: 0x394CD, size: 0x8, addend: 0x0, symName: __ZNSt3__14pairIPPN4sdds13CustomerOrderES4_EC1B7v160006IRS4_S7_LPv0EEEOT_OT0_, symObjAddr: 0x35A0, symBinAddr: 0x10000E520, symSize: 0x3C }
  - { offsetInCU: 0xB1A6, offset: 0x3952B, size: 0x8, addend: 0x0, symName: __ZNSt3__14pairIPPN4sdds13CustomerOrderES4_EC2B7v160006IRS4_S7_LPv0EEEOT_OT0_, symObjAddr: 0x35DC, symBinAddr: 0x10000E55C, symSize: 0x34 }
  - { offsetInCU: 0xB204, offset: 0x39589, size: 0x8, addend: 0x0, symName: __ZNSt3__114__split_bufferIPN4sdds13CustomerOrderERNS_9allocatorIS3_EEEC2EmmS6_, symObjAddr: 0x3698, symBinAddr: 0x10000E590, symSize: 0xD4 }
  - { offsetInCU: 0xB277, offset: 0x395FC, size: 0x8, addend: 0x0, symName: __ZNSt3__117__compressed_pairIPPN4sdds13CustomerOrderERNS_9allocatorIS3_EEEC1B7v160006IDnS7_EEOT_OT0_, symObjAddr: 0x376C, symBinAddr: 0x10000E664, symSize: 0x3C }
  - { offsetInCU: 0xB2CF, offset: 0x39654, size: 0x8, addend: 0x0, symName: __ZNSt3__117__compressed_pairIPPN4sdds13CustomerOrderERNS_9allocatorIS3_EEEC2B7v160006IDnS7_EEOT_OT0_, symObjAddr: 0x37E8, symBinAddr: 0x10000E6E0, symSize: 0x48 }
  - { offsetInCU: 0xB327, offset: 0x396AC, size: 0x8, addend: 0x0, symName: __ZNSt3__122__compressed_pair_elemIRNS_9allocatorIPN4sdds13CustomerOrderEEELi1ELb0EEC2B7v160006IS6_vEEOT_, symObjAddr: 0x3830, symBinAddr: 0x10000E728, symSize: 0x20 }
  - { offsetInCU: 0xB369, offset: 0x396EE, size: 0x8, addend: 0x0, symName: __ZNSt3__19allocatorIPN4sdds13CustomerOrderEE8allocateB7v160006Em, symObjAddr: 0x3850, symBinAddr: 0x10000E748, symSize: 0x58 }
  - { offsetInCU: 0xB3A7, offset: 0x3972C, size: 0x8, addend: 0x0, symName: __ZNSt3__116allocator_traitsINS_9allocatorIPN4sdds13CustomerOrderEEEE8max_sizeB7v160006IS5_vEEmRKS5_, symObjAddr: 0x38A8, symBinAddr: 0x10000E7A0, symSize: 0x24 }
  - { offsetInCU: 0xB3D5, offset: 0x3975A, size: 0x8, addend: 0x0, symName: __ZNKSt3__19allocatorIPN4sdds13CustomerOrderEE8max_sizeB7v160006Ev, symObjAddr: 0x38CC, symBinAddr: 0x10000E7C4, symSize: 0x14 }
  - { offsetInCU: 0xB3FB, offset: 0x39780, size: 0x8, addend: 0x0, symName: __ZNSt3__122__allocator_destructorINS_9allocatorIN4sdds13CustomerOrderEEEEC2B7v160006ERS4_m, symObjAddr: 0x38E0, symBinAddr: 0x10000E7D8, symSize: 0x2C }
  - { offsetInCU: 0xB441, offset: 0x397C6, size: 0x8, addend: 0x0, symName: __ZNSt3__110unique_ptrIPN4sdds13CustomerOrderENS_22__allocator_destructorINS_9allocatorIS2_EEEEEC2B7v160006ILb1EvEES3_NS_16__dependent_typeINS_27__unique_ptr_deleter_sfinaeIS7_EEXT_EE20__good_rval_ref_typeE, symObjAddr: 0x390C, symBinAddr: 0x10000E804, symSize: 0x48 }
  - { offsetInCU: 0xB492, offset: 0x39817, size: 0x8, addend: 0x0, symName: __ZNSt3__117__compressed_pairIPN4sdds13CustomerOrderENS_22__allocator_destructorINS_9allocatorIS2_EEEEEC1B7v160006IRS3_S7_EEOT_OT0_, symObjAddr: 0x3954, symBinAddr: 0x10000E84C, symSize: 0x3C }
  - { offsetInCU: 0xB4EA, offset: 0x3986F, size: 0x8, addend: 0x0, symName: __ZNSt3__117__compressed_pairIPN4sdds13CustomerOrderENS_22__allocator_destructorINS_9allocatorIS2_EEEEEC2B7v160006IRS3_S7_EEOT_OT0_, symObjAddr: 0x3990, symBinAddr: 0x10000E888, symSize: 0x48 }
  - { offsetInCU: 0xB542, offset: 0x398C7, size: 0x8, addend: 0x0, symName: __ZNSt3__122__compressed_pair_elemIPN4sdds13CustomerOrderELi0ELb0EEC2B7v160006IRS3_vEEOT_, symObjAddr: 0x39D8, symBinAddr: 0x10000E8D0, symSize: 0x24 }
  - { offsetInCU: 0xB584, offset: 0x39909, size: 0x8, addend: 0x0, symName: __ZNSt3__122__compressed_pair_elemINS_22__allocator_destructorINS_9allocatorIN4sdds13CustomerOrderEEEEELi1ELb0EEC2B7v160006IS6_vEEOT_, symObjAddr: 0x39FC, symBinAddr: 0x10000E8F4, symSize: 0x24 }
  - { offsetInCU: 0xB5C6, offset: 0x3994B, size: 0x8, addend: 0x0, symName: __ZNKSt3__117__compressed_pairIPN4sdds13CustomerOrderENS_22__allocator_destructorINS_9allocatorIS2_EEEEE5firstB7v160006Ev, symObjAddr: 0x3A20, symBinAddr: 0x10000E918, symSize: 0x24 }
  - { offsetInCU: 0xB5EC, offset: 0x39971, size: 0x8, addend: 0x0, symName: __ZNKSt3__122__compressed_pair_elemIPN4sdds13CustomerOrderELi0ELb0EE5__getB7v160006Ev, symObjAddr: 0x3A44, symBinAddr: 0x10000E93C, symSize: 0x14 }
  - { offsetInCU: 0xB612, offset: 0x39997, size: 0x8, addend: 0x0, symName: __ZNSt3__117__compressed_pairIPN4sdds13CustomerOrderENS_22__allocator_destructorINS_9allocatorIS2_EEEEE5firstB7v160006Ev, symObjAddr: 0x3A58, symBinAddr: 0x10000E950, symSize: 0x24 }
  - { offsetInCU: 0xB638, offset: 0x399BD, size: 0x8, addend: 0x0, symName: __ZNSt3__122__compressed_pair_elemIPN4sdds13CustomerOrderELi0ELb0EE5__getB7v160006Ev, symObjAddr: 0x3A7C, symBinAddr: 0x10000E974, symSize: 0x14 }
  - { offsetInCU: 0xB65E, offset: 0x399E3, size: 0x8, addend: 0x0, symName: __ZNSt3__117__compressed_pairIPPN4sdds13CustomerOrderENS_9allocatorIS3_EEE5firstB7v160006Ev, symObjAddr: 0x3A90, symBinAddr: 0x10000E988, symSize: 0x24 }
  - { offsetInCU: 0xB684, offset: 0x39A09, size: 0x8, addend: 0x0, symName: __ZNSt3__122__compressed_pair_elemIPPN4sdds13CustomerOrderELi0ELb0EE5__getB7v160006Ev, symObjAddr: 0x3AB4, symBinAddr: 0x10000E9AC, symSize: 0x14 }
  - { offsetInCU: 0xB6AA, offset: 0x39A2F, size: 0x8, addend: 0x0, symName: __ZNSt3__117__compressed_pairIPPN4sdds13CustomerOrderERNS_9allocatorIS3_EEE5firstB7v160006Ev, symObjAddr: 0x3AC8, symBinAddr: 0x10000E9C0, symSize: 0x24 }
  - { offsetInCU: 0xB6D0, offset: 0x39A55, size: 0x8, addend: 0x0, symName: __ZNSt3__110unique_ptrIPN4sdds13CustomerOrderENS_22__allocator_destructorINS_9allocatorIS2_EEEEED2B7v160006Ev, symObjAddr: 0x3AEC, symBinAddr: 0x10000E9E4, symSize: 0x30 }
  - { offsetInCU: 0xB6FA, offset: 0x39A7F, size: 0x8, addend: 0x0, symName: __ZNSt3__110unique_ptrIPN4sdds13CustomerOrderENS_22__allocator_destructorINS_9allocatorIS2_EEEEE5resetB7v160006ES3_, symObjAddr: 0x3B1C, symBinAddr: 0x10000EA14, symSize: 0x78 }
  - { offsetInCU: 0xB73E, offset: 0x39AC3, size: 0x8, addend: 0x0, symName: __ZNSt3__117__compressed_pairIPN4sdds13CustomerOrderENS_22__allocator_destructorINS_9allocatorIS2_EEEEE6secondB7v160006Ev, symObjAddr: 0x3B94, symBinAddr: 0x10000EA8C, symSize: 0x28 }
  - { offsetInCU: 0xB764, offset: 0x39AE9, size: 0x8, addend: 0x0, symName: __ZNSt3__122__allocator_destructorINS_9allocatorIN4sdds13CustomerOrderEEEEclB7v160006EPS3_, symObjAddr: 0x3BBC, symBinAddr: 0x10000EAB4, symSize: 0x34 }
  - { offsetInCU: 0xB798, offset: 0x39B1D, size: 0x8, addend: 0x0, symName: __ZNSt3__122__compressed_pair_elemINS_22__allocator_destructorINS_9allocatorIN4sdds13CustomerOrderEEEEELi1ELb0EE5__getB7v160006Ev, symObjAddr: 0x3BF0, symBinAddr: 0x10000EAE8, symSize: 0x14 }
  - { offsetInCU: 0xB7BE, offset: 0x39B43, size: 0x8, addend: 0x0, symName: __ZNSt3__114__split_bufferIPN4sdds13CustomerOrderERNS_9allocatorIS3_EEED2Ev, symObjAddr: 0x3C04, symBinAddr: 0x10000EAFC, symSize: 0x8C }
  - { offsetInCU: 0xB7EA, offset: 0x39B6F, size: 0x8, addend: 0x0, symName: __ZNSt3__114__split_bufferIPN4sdds13CustomerOrderERNS_9allocatorIS3_EEE5clearB7v160006Ev, symObjAddr: 0x3C90, symBinAddr: 0x10000EB88, symSize: 0x28 }
  - { offsetInCU: 0xB810, offset: 0x39B95, size: 0x8, addend: 0x0, symName: __ZNKSt3__114__split_bufferIPN4sdds13CustomerOrderERNS_9allocatorIS3_EEE8capacityB7v160006Ev, symObjAddr: 0x3CB8, symBinAddr: 0x10000EBB0, symSize: 0x40 }
  - { offsetInCU: 0xB836, offset: 0x39BBB, size: 0x8, addend: 0x0, symName: __ZNSt3__114__split_bufferIPN4sdds13CustomerOrderERNS_9allocatorIS3_EEE17__destruct_at_endB7v160006EPS3_, symObjAddr: 0x3CF8, symBinAddr: 0x10000EBF0, symSize: 0x2C }
  - { offsetInCU: 0xB86A, offset: 0x39BEF, size: 0x8, addend: 0x0, symName: __ZNSt3__114__split_bufferIPN4sdds13CustomerOrderERNS_9allocatorIS3_EEE17__destruct_at_endB7v160006EPS3_NS_17integral_constantIbLb0EEE, symObjAddr: 0x3D24, symBinAddr: 0x10000EC1C, symSize: 0x80 }
  - { offsetInCU: 0xB8AA, offset: 0x39C2F, size: 0x8, addend: 0x0, symName: __ZNKSt3__114__split_bufferIPN4sdds13CustomerOrderERNS_9allocatorIS3_EEE9__end_capB7v160006Ev, symObjAddr: 0x3DA4, symBinAddr: 0x10000EC9C, symSize: 0x28 }
  - { offsetInCU: 0xB8D0, offset: 0x39C55, size: 0x8, addend: 0x0, symName: __ZNKSt3__117__compressed_pairIPPN4sdds13CustomerOrderERNS_9allocatorIS3_EEE5firstB7v160006Ev, symObjAddr: 0x3DCC, symBinAddr: 0x10000ECC4, symSize: 0x24 }
  - { offsetInCU: 0xB8F6, offset: 0x39C7B, size: 0x8, addend: 0x0, symName: __ZNSt3__19allocatorIN4sdds13CustomerOrderEE9constructB7v160006IS2_JS2_EEEvPT_DpOT0_, symObjAddr: 0x3DF0, symBinAddr: 0x10000ECE8, symSize: 0x30 }
  - { offsetInCU: 0xE365, offset: 0x480F3, size: 0x8, addend: 0x0, symName: __ZNSt3__1neB7v160006IPN4sdds13CustomerOrderEEEbRKNS_11__wrap_iterIT_EES8_, symObjAddr: 0x17A0, symBinAddr: 0x100010384, symSize: 0x34 }
  - { offsetInCU: 0xE3A8, offset: 0x48136, size: 0x8, addend: 0x0, symName: __ZNSt3__1lsB7v160006INS_11char_traitsIcEEEERNS_13basic_ostreamIcT_EES6_c, symObjAddr: 0x190C, symBinAddr: 0x10001041C, symSize: 0x34 }
  - { offsetInCU: 0xE3EE, offset: 0x4817C, size: 0x8, addend: 0x0, symName: __ZNSt3__1eqB7v160006IPN4sdds13CustomerOrderEEEbRKNS_11__wrap_iterIT_EES8_, symObjAddr: 0x1C60, symBinAddr: 0x1000104A8, symSize: 0x48 }
  - { offsetInCU: 0xE431, offset: 0x481BF, size: 0x8, addend: 0x0, symName: __ZNSt3__119__debug_db_insert_cB7v160006INS_6vectorIN4sdds13CustomerOrderENS_9allocatorIS3_EEEEEEvPT_, symObjAddr: 0x38AC, symBinAddr: 0x10001063C, symSize: 0x10 }
  - { offsetInCU: 0xE462, offset: 0x481F0, size: 0x8, addend: 0x0, symName: __ZNSt3__118__debug_db_erase_cB7v160006INS_6vectorIN4sdds13CustomerOrderENS_9allocatorIS3_EEEEEEvPT_, symObjAddr: 0x3B70, symBinAddr: 0x100010894, symSize: 0x10 }
  - { offsetInCU: 0xEF89, offset: 0x48D17, size: 0x8, addend: 0x0, symName: __ZNSt3__1plB7v160006IcNS_11char_traitsIcEENS_9allocatorIcEEEENS_12basic_stringIT_T0_T1_EEOS9_PKS6_, symObjAddr: 0x3F38, symBinAddr: 0x100010C34, symSize: 0x40 }
  - { offsetInCU: 0xEFEC, offset: 0x48D7A, size: 0x8, addend: 0x0, symName: __ZNSt3__119__allocate_at_leastB7v160006INS_9allocatorIN4sdds13CustomerOrderEEEEENS_19__allocation_resultINS_16allocator_traitsIT_E7pointerEEERS7_m, symObjAddr: 0x6B5C, symBinAddr: 0x10001165C, symSize: 0x40 }
  - { offsetInCU: 0xF02F, offset: 0x48DBD, size: 0x8, addend: 0x0, symName: __ZNSt3__142__uninitialized_allocator_move_if_noexceptB7v160006INS_9allocatorIN4sdds13CustomerOrderEEENS_16reverse_iteratorIPS3_EES7_S7_EET2_RT_T0_T1_S8_, symObjAddr: 0x6D10, symBinAddr: 0x1000117B8, symSize: 0x12C }
  - { offsetInCU: 0xF0CF, offset: 0x48E5D, size: 0x8, addend: 0x0, symName: __ZNSt3__14swapB7v160006IPN4sdds13CustomerOrderEEENS_9enable_ifIXaasr21is_move_constructibleIT_EE5valuesr18is_move_assignableIS5_EE5valueEvE4typeERS5_S8_, symObjAddr: 0x6E88, symBinAddr: 0x100011930, symSize: 0x3C }
  - { offsetInCU: 0xF120, offset: 0x48EAE, size: 0x8, addend: 0x0, symName: __ZNSt3__125__debug_db_invalidate_allB7v160006INS_6vectorIN4sdds13CustomerOrderENS_9allocatorIS3_EEEEEEvPT_, symObjAddr: 0x6F70, symBinAddr: 0x100011A18, symSize: 0x10 }
  - { offsetInCU: 0xF151, offset: 0x48EDF, size: 0x8, addend: 0x0, symName: __ZNSt3__122__make_exception_guardB7v160006INS_29_AllocatorDestroyRangeReverseINS_9allocatorIN4sdds13CustomerOrderEEENS_16reverse_iteratorIPS4_EEEEEENS_28__exception_guard_exceptionsIT_EESB_, symObjAddr: 0x6F80, symBinAddr: 0x100011A28, symSize: 0x4C }
  - { offsetInCU: 0xF187, offset: 0x48F15, size: 0x8, addend: 0x0, symName: __ZNSt3__1neB7v160006IPN4sdds13CustomerOrderES3_EEbRKNS_16reverse_iteratorIT_EERKNS4_IT0_EE, symObjAddr: 0x7010, symBinAddr: 0x100011AB8, symSize: 0x48 }
  - { offsetInCU: 0xF1D3, offset: 0x48F61, size: 0x8, addend: 0x0, symName: __ZNSt3__112__to_addressB7v160006INS_16reverse_iteratorIPN4sdds13CustomerOrderEEEvEENS_5decayIDTclsr19__to_address_helperIT_EE6__callclsr3stdE7declvalIRKS7_EEEEE4typeES9_, symObjAddr: 0x7058, symBinAddr: 0x100011B00, symSize: 0x24 }
  - { offsetInCU: 0xF232, offset: 0x48FC0, size: 0x8, addend: 0x0, symName: __ZNSt3__119__allocator_destroyB7v160006INS_9allocatorIN4sdds13CustomerOrderEEENS_16reverse_iteratorINS5_IPS3_EEEES8_EEvRT_T0_T1_, symObjAddr: 0x7308, symBinAddr: 0x100011DB0, symSize: 0x70 }
  - { offsetInCU: 0xF297, offset: 0x49025, size: 0x8, addend: 0x0, symName: __ZNSt3__1neB7v160006INS_16reverse_iteratorIPN4sdds13CustomerOrderEEES5_EEbRKNS1_IT_EERKNS1_IT0_EE, symObjAddr: 0x73B4, symBinAddr: 0x100011E5C, symSize: 0x60 }
  - { offsetInCU: 0xF2E3, offset: 0x49071, size: 0x8, addend: 0x0, symName: __ZNSt3__112__to_addressB7v160006INS_16reverse_iteratorINS1_IPN4sdds13CustomerOrderEEEEEvEENS_5decayIDTclsr19__to_address_helperIT_EE6__callclsr3stdE7declvalIRKS8_EEEEE4typeESA_, symObjAddr: 0x7414, symBinAddr: 0x100011EBC, symSize: 0x24 }
  - { offsetInCU: 0x100BF, offset: 0x49E4D, size: 0x8, addend: 0x0, symName: __ZNSt3__16vectorIN4sdds13CustomerOrderENS_9allocatorIS2_EEE26__swap_out_circular_bufferERNS_14__split_bufferIS2_RS4_EE, symObjAddr: 0x67F4, symBinAddr: 0x10001132C, symSize: 0x118 }
  - { offsetInCU: 0x11F8D, offset: 0x4BD1B, size: 0x8, addend: 0x0, symName: _main, symObjAddr: 0x0, symBinAddr: 0x10000EDF4, symSize: 0xF2C }
  - { offsetInCU: 0x12274, offset: 0x4C002, size: 0x8, addend: 0x0, symName: __ZNSt3__16vectorIN4sdds13CustomerOrderENS_9allocatorIS2_EEEC1B7v160006Ev, symObjAddr: 0x1024, symBinAddr: 0x10000FD20, symSize: 0x2C }
  - { offsetInCU: 0x1229E, offset: 0x4C02C, size: 0x8, addend: 0x0, symName: __ZL12loadFromFileIN4sdds11WorkstationEEvPKcRNSt3__16vectorIPT_NS4_9allocatorIS7_EEEE, symObjAddr: 0x1050, symBinAddr: 0x10000FD4C, symSize: 0x2E8 }
  - { offsetInCU: 0x122FE, offset: 0x4C08C, size: 0x8, addend: 0x0, symName: __ZNSt3__16vectorIPN4sdds11WorkstationENS_9allocatorIS3_EEEixB7v160006Em, symObjAddr: 0x1450, symBinAddr: 0x100010034, symSize: 0x24 }
  - { offsetInCU: 0x12335, offset: 0x4C0C3, size: 0x8, addend: 0x0, symName: __ZL12loadFromFileIN4sdds13CustomerOrderEEvPKcRNSt3__16vectorIT_NS4_9allocatorIS6_EEEE, symObjAddr: 0x1474, symBinAddr: 0x100010058, symSize: 0x2CC }
  - { offsetInCU: 0x123A9, offset: 0x4C137, size: 0x8, addend: 0x0, symName: __ZNSt3__16vectorIN4sdds13CustomerOrderENS_9allocatorIS2_EEE5beginB7v160006Ev, symObjAddr: 0x1740, symBinAddr: 0x100010324, symSize: 0x30 }
  - { offsetInCU: 0x123D0, offset: 0x4C15E, size: 0x8, addend: 0x0, symName: __ZNSt3__16vectorIN4sdds13CustomerOrderENS_9allocatorIS2_EEE3endB7v160006Ev, symObjAddr: 0x1770, symBinAddr: 0x100010354, symSize: 0x30 }
  - { offsetInCU: 0x123F7, offset: 0x4C185, size: 0x8, addend: 0x0, symName: __ZNKSt3__111__wrap_iterIPN4sdds13CustomerOrderEEdeB7v160006Ev, symObjAddr: 0x17D4, symBinAddr: 0x1000103B8, symSize: 0x18 }
  - { offsetInCU: 0x1241D, offset: 0x4C1AB, size: 0x8, addend: 0x0, symName: __ZNSt3__111__wrap_iterIPN4sdds13CustomerOrderEEppB7v160006Ev, symObjAddr: 0x188C, symBinAddr: 0x1000103D0, symSize: 0x20 }
  - { offsetInCU: 0x1245C, offset: 0x4C1EA, size: 0x8, addend: 0x0, symName: __ZN4sdds11LineManagerD1Ev, symObjAddr: 0x18E0, symBinAddr: 0x1000103F0, symSize: 0x2C }
  - { offsetInCU: 0x12488, offset: 0x4C216, size: 0x8, addend: 0x0, symName: __ZN4sdds11WorkstationD1Ev, symObjAddr: 0x1B7C, symBinAddr: 0x100010450, symSize: 0x2C }
  - { offsetInCU: 0x124B4, offset: 0x4C242, size: 0x8, addend: 0x0, symName: __ZNSt3__16vectorIN4sdds13CustomerOrderENS_9allocatorIS2_EEED1B7v160006Ev, symObjAddr: 0x1BA8, symBinAddr: 0x10001047C, symSize: 0x2C }
  - { offsetInCU: 0x124DE, offset: 0x4C26C, size: 0x8, addend: 0x0, symName: __ZNKSt3__111__wrap_iterIPN4sdds13CustomerOrderEE4baseB7v160006Ev, symObjAddr: 0x1CA8, symBinAddr: 0x1000104F0, symSize: 0x18 }
  - { offsetInCU: 0x12504, offset: 0x4C292, size: 0x8, addend: 0x0, symName: __ZN4sdds11LineManagerD2Ev, symObjAddr: 0x1CC0, symBinAddr: 0x100010508, symSize: 0x2C }
  - { offsetInCU: 0x12530, offset: 0x4C2BE, size: 0x8, addend: 0x0, symName: __ZN4sdds11WorkstationD2Ev, symObjAddr: 0x1CEC, symBinAddr: 0x100010534, symSize: 0x38 }
  - { offsetInCU: 0x1255C, offset: 0x4C2EA, size: 0x8, addend: 0x0, symName: __ZN4sdds7StationD2Ev, symObjAddr: 0x1D50, symBinAddr: 0x10001056C, symSize: 0x3C }
  - { offsetInCU: 0x125B0, offset: 0x4C33E, size: 0x8, addend: 0x0, symName: __ZNSt3__16vectorIN4sdds13CustomerOrderENS_9allocatorIS2_EEEC2B7v160006Ev, symObjAddr: 0x3818, symBinAddr: 0x1000105A8, symSize: 0x58 }
  - { offsetInCU: 0x125DA, offset: 0x4C368, size: 0x8, addend: 0x0, symName: __ZNSt3__117__compressed_pairIPN4sdds13CustomerOrderENS_9allocatorIS2_EEEC1B7v160006IDnNS_18__default_init_tagEEEOT_OT0_, symObjAddr: 0x3870, symBinAddr: 0x100010600, symSize: 0x3C }
  - { offsetInCU: 0x12632, offset: 0x4C3C0, size: 0x8, addend: 0x0, symName: __ZNSt3__117__compressed_pairIPN4sdds13CustomerOrderENS_9allocatorIS2_EEEC2B7v160006IDnNS_18__default_init_tagEEEOT_OT0_, symObjAddr: 0x38BC, symBinAddr: 0x10001064C, symSize: 0x40 }
  - { offsetInCU: 0x1268A, offset: 0x4C418, size: 0x8, addend: 0x0, symName: __ZNSt3__122__compressed_pair_elemIPN4sdds13CustomerOrderELi0ELb0EEC2B7v160006IDnvEEOT_, symObjAddr: 0x38FC, symBinAddr: 0x10001068C, symSize: 0x1C }
  - { offsetInCU: 0x126CC, offset: 0x4C45A, size: 0x8, addend: 0x0, symName: __ZNSt3__16vectorIN4sdds13CustomerOrderENS_9allocatorIS2_EEED2B7v160006Ev, symObjAddr: 0x3984, symBinAddr: 0x1000106A8, symSize: 0x44 }
  - { offsetInCU: 0x126F6, offset: 0x4C484, size: 0x8, addend: 0x0, symName: __ZNSt3__16vectorIN4sdds13CustomerOrderENS_9allocatorIS2_EEE16__destroy_vectorC1ERS5_, symObjAddr: 0x39C8, symBinAddr: 0x1000106EC, symSize: 0x34 }
  - { offsetInCU: 0x1272F, offset: 0x4C4BD, size: 0x8, addend: 0x0, symName: __ZNSt3__16vectorIN4sdds13CustomerOrderENS_9allocatorIS2_EEE16__destroy_vectorclB7v160006Ev, symObjAddr: 0x39FC, symBinAddr: 0x100010720, symSize: 0x9C }
  - { offsetInCU: 0x12755, offset: 0x4C4E3, size: 0x8, addend: 0x0, symName: __ZNSt3__16vectorIN4sdds13CustomerOrderENS_9allocatorIS2_EEE16__destroy_vectorC2ERS5_, symObjAddr: 0x3A98, symBinAddr: 0x1000107BC, symSize: 0x20 }
  - { offsetInCU: 0x1278E, offset: 0x4C51C, size: 0x8, addend: 0x0, symName: __ZNKSt3__16vectorIN4sdds13CustomerOrderENS_9allocatorIS2_EEE17__annotate_deleteB7v160006Ev, symObjAddr: 0x3AB8, symBinAddr: 0x1000107DC, symSize: 0xB8 }
  - { offsetInCU: 0x127B4, offset: 0x4C542, size: 0x8, addend: 0x0, symName: __ZNSt3__16vectorIN4sdds13CustomerOrderENS_9allocatorIS2_EEE7__clearB7v160006Ev, symObjAddr: 0x3B80, symBinAddr: 0x1000108A4, symSize: 0x28 }
  - { offsetInCU: 0x127DA, offset: 0x4C568, size: 0x8, addend: 0x0, symName: __ZNSt3__16vectorIN4sdds13CustomerOrderENS_9allocatorIS2_EEE7__allocB7v160006Ev, symObjAddr: 0x3BA8, symBinAddr: 0x1000108CC, symSize: 0x28 }
  - { offsetInCU: 0x12800, offset: 0x4C58E, size: 0x8, addend: 0x0, symName: __ZNKSt3__16vectorIN4sdds13CustomerOrderENS_9allocatorIS2_EEE8capacityB7v160006Ev, symObjAddr: 0x3BD0, symBinAddr: 0x1000108F4, symSize: 0x40 }
  - { offsetInCU: 0x12826, offset: 0x4C5B4, size: 0x8, addend: 0x0, symName: __ZNKSt3__16vectorIN4sdds13CustomerOrderENS_9allocatorIS2_EEE31__annotate_contiguous_containerB7v160006EPKvS7_S7_S7_, symObjAddr: 0x3C10, symBinAddr: 0x100010934, symSize: 0x20 }
  - { offsetInCU: 0x1287C, offset: 0x4C60A, size: 0x8, addend: 0x0, symName: __ZNKSt3__16vectorIN4sdds13CustomerOrderENS_9allocatorIS2_EEE4dataB7v160006Ev, symObjAddr: 0x3C30, symBinAddr: 0x100010954, symSize: 0x28 }
  - { offsetInCU: 0x128A2, offset: 0x4C630, size: 0x8, addend: 0x0, symName: __ZNKSt3__16vectorIN4sdds13CustomerOrderENS_9allocatorIS2_EEE4sizeB7v160006Ev, symObjAddr: 0x3C58, symBinAddr: 0x10001097C, symSize: 0x28 }
  - { offsetInCU: 0x128C8, offset: 0x4C656, size: 0x8, addend: 0x0, symName: __ZNSt3__16vectorIN4sdds13CustomerOrderENS_9allocatorIS2_EEE22__base_destruct_at_endB7v160006EPS2_, symObjAddr: 0x3C94, symBinAddr: 0x1000109A4, symSize: 0x8C }
  - { offsetInCU: 0x1290C, offset: 0x4C69A, size: 0x8, addend: 0x0, symName: __ZNSt3__117__compressed_pairIPN4sdds13CustomerOrderENS_9allocatorIS2_EEE6secondB7v160006Ev, symObjAddr: 0x3D20, symBinAddr: 0x100010A30, symSize: 0x24 }
  - { offsetInCU: 0x12932, offset: 0x4C6C0, size: 0x8, addend: 0x0, symName: __ZNKSt3__16vectorIN4sdds13CustomerOrderENS_9allocatorIS2_EEE9__end_capB7v160006Ev, symObjAddr: 0x3D44, symBinAddr: 0x100010A54, symSize: 0x28 }
  - { offsetInCU: 0x12958, offset: 0x4C6E6, size: 0x8, addend: 0x0, symName: __ZNKSt3__117__compressed_pairIPN4sdds13CustomerOrderENS_9allocatorIS2_EEE5firstB7v160006Ev, symObjAddr: 0x3D6C, symBinAddr: 0x100010A7C, symSize: 0x24 }
  - { offsetInCU: 0x12A44, offset: 0x4C7D2, size: 0x8, addend: 0x0, symName: __ZNSt3__114basic_ifstreamIcNS_11char_traitsIcEEEC1EPKcj, symObjAddr: 0x3DA4, symBinAddr: 0x100010AA0, symSize: 0x16C }
  - { offsetInCU: 0x12A8E, offset: 0x4C81C, size: 0x8, addend: 0x0, symName: __ZNKSt3__19basic_iosIcNS_11char_traitsIcEEEntB7v160006Ev, symObjAddr: 0x3F10, symBinAddr: 0x100010C0C, symSize: 0x28 }
  - { offsetInCU: 0x12AB4, offset: 0x4C842, size: 0x8, addend: 0x0, symName: __ZNKSt3__19basic_iosIcNS_11char_traitsIcEEE3eofB7v160006Ev, symObjAddr: 0x3FA4, symBinAddr: 0x100010C74, symSize: 0x28 }
  - { offsetInCU: 0x12ADA, offset: 0x4C868, size: 0x8, addend: 0x0, symName: __ZNSt3__16vectorIPN4sdds11WorkstationENS_9allocatorIS3_EEE9push_backB7v160006EOS3_, symObjAddr: 0x4028, symBinAddr: 0x100010C9C, symSize: 0x6C }
  - { offsetInCU: 0x12B10, offset: 0x4C89E, size: 0x8, addend: 0x0, symName: __ZNSt3__114basic_ifstreamIcNS_11char_traitsIcEEE5closeEv, symObjAddr: 0x4094, symBinAddr: 0x100010D08, symSize: 0x58 }
  - { offsetInCU: 0x12B3C, offset: 0x4C8CA, size: 0x8, addend: 0x0, symName: __ZNKSt3__18ios_base3eofB7v160006Ev, symObjAddr: 0x43E4, symBinAddr: 0x100010D60, symSize: 0x24 }
  - { offsetInCU: 0x12B87, offset: 0x4C915, size: 0x8, addend: 0x0, symName: __ZNSt3__16vectorIPN4sdds11WorkstationENS_9allocatorIS3_EEE22__construct_one_at_endB7v160006IJS3_EEEvDpOT_, symObjAddr: 0x4B68, symBinAddr: 0x100010D84, symSize: 0x90 }
  - { offsetInCU: 0x12BD6, offset: 0x4C964, size: 0x8, addend: 0x0, symName: __ZNSt3__16vectorIPN4sdds11WorkstationENS_9allocatorIS3_EEE21__push_back_slow_pathIS3_EEvOT_, symObjAddr: 0x4BF8, symBinAddr: 0x100010E14, symSize: 0xD8 }
  - { offsetInCU: 0x12C4C, offset: 0x4C9DA, size: 0x8, addend: 0x0, symName: __ZNSt3__116allocator_traitsINS_9allocatorIPN4sdds11WorkstationEEEE9constructB7v160006IS4_JS4_EvEEvRS5_PT_DpOT0_, symObjAddr: 0x4D44, symBinAddr: 0x100010EEC, symSize: 0x34 }
  - { offsetInCU: 0x12CA3, offset: 0x4CA31, size: 0x8, addend: 0x0, symName: __ZNSt3__19allocatorIPN4sdds11WorkstationEE9constructB7v160006IS3_JS3_EEEvPT_DpOT0_, symObjAddr: 0x4DE8, symBinAddr: 0x100010F20, symSize: 0x28 }
  - { offsetInCU: 0x12D03, offset: 0x4CA91, size: 0x8, addend: 0x0, symName: __ZNSt3__16vectorIN4sdds13CustomerOrderENS_9allocatorIS2_EEE9push_backB7v160006EOS2_, symObjAddr: 0x6398, symBinAddr: 0x100010F48, symSize: 0x6C }
  - { offsetInCU: 0x12D39, offset: 0x4CAC7, size: 0x8, addend: 0x0, symName: __ZNSt3__16vectorIN4sdds13CustomerOrderENS_9allocatorIS2_EEE9__end_capB7v160006Ev, symObjAddr: 0x6404, symBinAddr: 0x100010FB4, symSize: 0x28 }
  - { offsetInCU: 0x12D5F, offset: 0x4CAED, size: 0x8, addend: 0x0, symName: __ZNSt3__16vectorIN4sdds13CustomerOrderENS_9allocatorIS2_EEE22__construct_one_at_endB7v160006IJS2_EEEvDpOT_, symObjAddr: 0x642C, symBinAddr: 0x100010FDC, symSize: 0x90 }
  - { offsetInCU: 0x12DAE, offset: 0x4CB3C, size: 0x8, addend: 0x0, symName: __ZNSt3__16vectorIN4sdds13CustomerOrderENS_9allocatorIS2_EEE21__push_back_slow_pathIS2_EEvOT_, symObjAddr: 0x64BC, symBinAddr: 0x10001106C, symSize: 0xD8 }
  - { offsetInCU: 0x12E0B, offset: 0x4CB99, size: 0x8, addend: 0x0, symName: __ZNSt3__117__compressed_pairIPN4sdds13CustomerOrderENS_9allocatorIS2_EEE5firstB7v160006Ev, symObjAddr: 0x6594, symBinAddr: 0x100011144, symSize: 0x24 }
  - { offsetInCU: 0x12E4A, offset: 0x4CBD8, size: 0x8, addend: 0x0, symName: __ZNSt3__16vectorIN4sdds13CustomerOrderENS_9allocatorIS2_EEE21_ConstructTransactionC1B7v160006ERS5_m, symObjAddr: 0x65CC, symBinAddr: 0x100011168, symSize: 0x3C }
  - { offsetInCU: 0x12E92, offset: 0x4CC20, size: 0x8, addend: 0x0, symName: __ZNSt3__16vectorIN4sdds13CustomerOrderENS_9allocatorIS2_EEE21_ConstructTransactionD1B7v160006Ev, symObjAddr: 0x663C, symBinAddr: 0x1000111A4, symSize: 0x2C }
  - { offsetInCU: 0x12EBC, offset: 0x4CC4A, size: 0x8, addend: 0x0, symName: __ZNSt3__16vectorIN4sdds13CustomerOrderENS_9allocatorIS2_EEE21_ConstructTransactionC2B7v160006ERS5_m, symObjAddr: 0x6668, symBinAddr: 0x1000111D0, symSize: 0x44 }
  - { offsetInCU: 0x12F04, offset: 0x4CC92, size: 0x8, addend: 0x0, symName: __ZNSt3__16vectorIN4sdds13CustomerOrderENS_9allocatorIS2_EEE21_ConstructTransactionD2B7v160006Ev, symObjAddr: 0x66DC, symBinAddr: 0x100011214, symSize: 0x20 }
  - { offsetInCU: 0x12F2E, offset: 0x4CCBC, size: 0x8, addend: 0x0, symName: __ZNKSt3__16vectorIN4sdds13CustomerOrderENS_9allocatorIS2_EEE11__recommendB7v160006Em, symObjAddr: 0x66FC, symBinAddr: 0x100011234, symSize: 0xB4 }
  - { offsetInCU: 0x12F82, offset: 0x4CD10, size: 0x8, addend: 0x0, symName: __ZNSt3__114__split_bufferIN4sdds13CustomerOrderERNS_9allocatorIS2_EEEC1EmmS5_, symObjAddr: 0x67B0, symBinAddr: 0x1000112E8, symSize: 0x44 }
  - { offsetInCU: 0x12FD8, offset: 0x4CD66, size: 0x8, addend: 0x0, symName: __ZNSt3__114__split_bufferIN4sdds13CustomerOrderERNS_9allocatorIS2_EEED1Ev, symObjAddr: 0x690C, symBinAddr: 0x100011444, symSize: 0x2C }
  - { offsetInCU: 0x13004, offset: 0x4CD92, size: 0x8, addend: 0x0, symName: __ZNKSt3__16vectorIN4sdds13CustomerOrderENS_9allocatorIS2_EEE8max_sizeEv, symObjAddr: 0x6938, symBinAddr: 0x100011470, symSize: 0x60 }
  - { offsetInCU: 0x1302B, offset: 0x4CDB9, size: 0x8, addend: 0x0, symName: __ZNKSt3__16vectorIN4sdds13CustomerOrderENS_9allocatorIS2_EEE20__throw_length_errorB7v160006Ev, symObjAddr: 0x6998, symBinAddr: 0x1000114D0, symSize: 0x1C }
  - { offsetInCU: 0x1305B, offset: 0x4CDE9, size: 0x8, addend: 0x0, symName: __ZNKSt3__16vectorIN4sdds13CustomerOrderENS_9allocatorIS2_EEE7__allocB7v160006Ev, symObjAddr: 0x69D8, symBinAddr: 0x1000114EC, symSize: 0x28 }
  - { offsetInCU: 0x13081, offset: 0x4CE0F, size: 0x8, addend: 0x0, symName: __ZNKSt3__117__compressed_pairIPN4sdds13CustomerOrderENS_9allocatorIS2_EEE6secondB7v160006Ev, symObjAddr: 0x6A14, symBinAddr: 0x100011514, symSize: 0x24 }
  - { offsetInCU: 0x130A7, offset: 0x4CE35, size: 0x8, addend: 0x0, symName: __ZNKSt3__122__compressed_pair_elemINS_9allocatorIN4sdds13CustomerOrderEEELi1ELb1EE5__getB7v160006Ev, symObjAddr: 0x6A38, symBinAddr: 0x100011538, symSize: 0x14 }
  - { offsetInCU: 0x130CD, offset: 0x4CE5B, size: 0x8, addend: 0x0, symName: __ZNSt3__114__split_bufferIN4sdds13CustomerOrderERNS_9allocatorIS2_EEEC2EmmS5_, symObjAddr: 0x6A4C, symBinAddr: 0x10001154C, symSize: 0xD4 }
  - { offsetInCU: 0x13140, offset: 0x4CECE, size: 0x8, addend: 0x0, symName: __ZNSt3__117__compressed_pairIPN4sdds13CustomerOrderERNS_9allocatorIS2_EEEC1B7v160006IDnS6_EEOT_OT0_, symObjAddr: 0x6B20, symBinAddr: 0x100011620, symSize: 0x3C }
  - { offsetInCU: 0x13198, offset: 0x4CF26, size: 0x8, addend: 0x0, symName: __ZNSt3__114__split_bufferIN4sdds13CustomerOrderERNS_9allocatorIS2_EEE7__allocB7v160006Ev, symObjAddr: 0x6B9C, symBinAddr: 0x10001169C, symSize: 0x28 }
  - { offsetInCU: 0x131BE, offset: 0x4CF4C, size: 0x8, addend: 0x0, symName: __ZNSt3__114__split_bufferIN4sdds13CustomerOrderERNS_9allocatorIS2_EEE9__end_capB7v160006Ev, symObjAddr: 0x6BC4, symBinAddr: 0x1000116C4, symSize: 0x28 }
  - { offsetInCU: 0x131E4, offset: 0x4CF72, size: 0x8, addend: 0x0, symName: __ZNSt3__117__compressed_pairIPN4sdds13CustomerOrderERNS_9allocatorIS2_EEEC2B7v160006IDnS6_EEOT_OT0_, symObjAddr: 0x6BEC, symBinAddr: 0x1000116EC, symSize: 0x48 }
  - { offsetInCU: 0x1323C, offset: 0x4CFCA, size: 0x8, addend: 0x0, symName: __ZNSt3__122__compressed_pair_elemIRNS_9allocatorIN4sdds13CustomerOrderEEELi1ELb0EEC2B7v160006IS5_vEEOT_, symObjAddr: 0x6C34, symBinAddr: 0x100011734, symSize: 0x20 }
  - { offsetInCU: 0x1327E, offset: 0x4D00C, size: 0x8, addend: 0x0, symName: __ZNSt3__117__compressed_pairIPN4sdds13CustomerOrderERNS_9allocatorIS2_EEE6secondB7v160006Ev, symObjAddr: 0x6CAC, symBinAddr: 0x100011754, symSize: 0x28 }
  - { offsetInCU: 0x132A4, offset: 0x4D032, size: 0x8, addend: 0x0, symName: __ZNSt3__122__compressed_pair_elemIRNS_9allocatorIN4sdds13CustomerOrderEEELi1ELb0EE5__getB7v160006Ev, symObjAddr: 0x6CD4, symBinAddr: 0x10001177C, symSize: 0x18 }
  - { offsetInCU: 0x132CA, offset: 0x4D058, size: 0x8, addend: 0x0, symName: __ZNSt3__117__compressed_pairIPN4sdds13CustomerOrderERNS_9allocatorIS2_EEE5firstB7v160006Ev, symObjAddr: 0x6CEC, symBinAddr: 0x100011794, symSize: 0x24 }
  - { offsetInCU: 0x132F0, offset: 0x4D07E, size: 0x8, addend: 0x0, symName: __ZNSt3__116reverse_iteratorIPN4sdds13CustomerOrderEEC1B7v160006ES3_, symObjAddr: 0x6E3C, symBinAddr: 0x1000118E4, symSize: 0x34 }
  - { offsetInCU: 0x13328, offset: 0x4D0B6, size: 0x8, addend: 0x0, symName: __ZNKSt3__116reverse_iteratorIPN4sdds13CustomerOrderEE4baseB7v160006Ev, symObjAddr: 0x6E70, symBinAddr: 0x100011918, symSize: 0x18 }
  - { offsetInCU: 0x1334E, offset: 0x4D0DC, size: 0x8, addend: 0x0, symName: __ZNKSt3__16vectorIN4sdds13CustomerOrderENS_9allocatorIS2_EEE14__annotate_newB7v160006Em, symObjAddr: 0x6EC4, symBinAddr: 0x10001196C, symSize: 0xAC }
  - { offsetInCU: 0x13383, offset: 0x4D111, size: 0x8, addend: 0x0, symName: __ZNSt3__129_AllocatorDestroyRangeReverseINS_9allocatorIN4sdds13CustomerOrderEEENS_16reverse_iteratorIPS3_EEEC1B7v160006ERS4_RS7_SA_, symObjAddr: 0x6FCC, symBinAddr: 0x100011A74, symSize: 0x44 }
  - { offsetInCU: 0x133DA, offset: 0x4D168, size: 0x8, addend: 0x0, symName: __ZNKSt3__116reverse_iteratorIPN4sdds13CustomerOrderEEdeB7v160006Ev, symObjAddr: 0x707C, symBinAddr: 0x100011B24, symSize: 0x28 }
  - { offsetInCU: 0x1340E, offset: 0x4D19C, size: 0x8, addend: 0x0, symName: __ZNSt3__116reverse_iteratorIPN4sdds13CustomerOrderEEppB7v160006Ev, symObjAddr: 0x70A4, symBinAddr: 0x100011B4C, symSize: 0x20 }
  - { offsetInCU: 0x13434, offset: 0x4D1C2, size: 0x8, addend: 0x0, symName: __ZNSt3__128__exception_guard_exceptionsINS_29_AllocatorDestroyRangeReverseINS_9allocatorIN4sdds13CustomerOrderEEENS_16reverse_iteratorIPS4_EEEEE10__completeB7v160006Ev, symObjAddr: 0x70C4, symBinAddr: 0x100011B6C, symSize: 0x1C }
  - { offsetInCU: 0x1345A, offset: 0x4D1E8, size: 0x8, addend: 0x0, symName: __ZNSt3__128__exception_guard_exceptionsINS_29_AllocatorDestroyRangeReverseINS_9allocatorIN4sdds13CustomerOrderEEENS_16reverse_iteratorIPS4_EEEEED1B7v160006Ev, symObjAddr: 0x70E0, symBinAddr: 0x100011B88, symSize: 0x2C }
  - { offsetInCU: 0x13484, offset: 0x4D212, size: 0x8, addend: 0x0, symName: __ZNSt3__128__exception_guard_exceptionsINS_29_AllocatorDestroyRangeReverseINS_9allocatorIN4sdds13CustomerOrderEEENS_16reverse_iteratorIPS4_EEEEEC1B7v160006ES9_, symObjAddr: 0x710C, symBinAddr: 0x100011BB4, symSize: 0x34 }
  - { offsetInCU: 0x134BD, offset: 0x4D24B, size: 0x8, addend: 0x0, symName: __ZNSt3__128__exception_guard_exceptionsINS_29_AllocatorDestroyRangeReverseINS_9allocatorIN4sdds13CustomerOrderEEENS_16reverse_iteratorIPS4_EEEEEC2B7v160006ES9_, symObjAddr: 0x7140, symBinAddr: 0x100011BE8, symSize: 0x30 }
  - { offsetInCU: 0x134F6, offset: 0x4D284, size: 0x8, addend: 0x0, symName: __ZNSt3__129_AllocatorDestroyRangeReverseINS_9allocatorIN4sdds13CustomerOrderEEENS_16reverse_iteratorIPS3_EEEC2B7v160006ERS4_RS7_SA_, symObjAddr: 0x7170, symBinAddr: 0x100011C18, symSize: 0x38 }
  - { offsetInCU: 0x13552, offset: 0x4D2E0, size: 0x8, addend: 0x0, symName: __ZNSt3__119__to_address_helperINS_16reverse_iteratorIPN4sdds13CustomerOrderEEEvE6__callB7v160006ERKS5_, symObjAddr: 0x71A8, symBinAddr: 0x100011C50, symSize: 0x38 }
  - { offsetInCU: 0x13575, offset: 0x4D303, size: 0x8, addend: 0x0, symName: __ZNKSt3__116reverse_iteratorIPN4sdds13CustomerOrderEEptB7v160006Ev, symObjAddr: 0x71E0, symBinAddr: 0x100011C88, symSize: 0x24 }
  - { offsetInCU: 0x1359B, offset: 0x4D329, size: 0x8, addend: 0x0, symName: __ZNSt3__128__exception_guard_exceptionsINS_29_AllocatorDestroyRangeReverseINS_9allocatorIN4sdds13CustomerOrderEEENS_16reverse_iteratorIPS4_EEEEED2B7v160006Ev, symObjAddr: 0x7204, symBinAddr: 0x100011CAC, symSize: 0x50 }
  - { offsetInCU: 0x135C5, offset: 0x4D353, size: 0x8, addend: 0x0, symName: __ZNKSt3__129_AllocatorDestroyRangeReverseINS_9allocatorIN4sdds13CustomerOrderEEENS_16reverse_iteratorIPS3_EEEclB7v160006Ev, symObjAddr: 0x7254, symBinAddr: 0x100011CFC, symSize: 0xB4 }
  - { offsetInCU: 0x135EC, offset: 0x4D37A, size: 0x8, addend: 0x0, symName: __ZNSt3__116reverse_iteratorINS0_IPN4sdds13CustomerOrderEEEEC1B7v160006ES4_, symObjAddr: 0x7378, symBinAddr: 0x100011E20, symSize: 0x3C }
  - { offsetInCU: 0x13624, offset: 0x4D3B2, size: 0x8, addend: 0x0, symName: __ZNSt3__116reverse_iteratorINS0_IPN4sdds13CustomerOrderEEEEppB7v160006Ev, symObjAddr: 0x7438, symBinAddr: 0x100011EE0, symSize: 0x30 }
  - { offsetInCU: 0x1364A, offset: 0x4D3D8, size: 0x8, addend: 0x0, symName: __ZNKSt3__116reverse_iteratorINS0_IPN4sdds13CustomerOrderEEEE4baseB7v160006Ev, symObjAddr: 0x7468, symBinAddr: 0x100011F10, symSize: 0x24 }
  - { offsetInCU: 0x13675, offset: 0x4D403, size: 0x8, addend: 0x0, symName: __ZNSt3__119__to_address_helperINS_16reverse_iteratorINS1_IPN4sdds13CustomerOrderEEEEEvE6__callB7v160006ERKS6_, symObjAddr: 0x748C, symBinAddr: 0x100011F34, symSize: 0x38 }
  - { offsetInCU: 0x13698, offset: 0x4D426, size: 0x8, addend: 0x0, symName: __ZNKSt3__116reverse_iteratorINS0_IPN4sdds13CustomerOrderEEEEptB7v160006Ev, symObjAddr: 0x74C4, symBinAddr: 0x100011F6C, symSize: 0x24 }
  - { offsetInCU: 0x136BE, offset: 0x4D44C, size: 0x8, addend: 0x0, symName: __ZNKSt3__116reverse_iteratorINS0_IPN4sdds13CustomerOrderEEEEdeB7v160006Ev, symObjAddr: 0x74E8, symBinAddr: 0x100011F90, symSize: 0x34 }
  - { offsetInCU: 0x136F2, offset: 0x4D480, size: 0x8, addend: 0x0, symName: __ZNSt3__116reverse_iteratorIPN4sdds13CustomerOrderEEmmB7v160006Ev, symObjAddr: 0x751C, symBinAddr: 0x100011FC4, symSize: 0x20 }
  - { offsetInCU: 0x13718, offset: 0x4D4A6, size: 0x8, addend: 0x0, symName: __ZNSt3__116reverse_iteratorINS0_IPN4sdds13CustomerOrderEEEEC2B7v160006ES4_, symObjAddr: 0x753C, symBinAddr: 0x100011FE4, symSize: 0x2C }
  - { offsetInCU: 0x13750, offset: 0x4D4DE, size: 0x8, addend: 0x0, symName: __ZNSt3__116reverse_iteratorIPN4sdds13CustomerOrderEEC2B7v160006ES3_, symObjAddr: 0x7568, symBinAddr: 0x100012010, symSize: 0x28 }
  - { offsetInCU: 0x13788, offset: 0x4D516, size: 0x8, addend: 0x0, symName: __ZNSt3__114__split_bufferIN4sdds13CustomerOrderERNS_9allocatorIS2_EEED2Ev, symObjAddr: 0x7590, symBinAddr: 0x100012038, symSize: 0x8C }
  - { offsetInCU: 0x137B4, offset: 0x4D542, size: 0x8, addend: 0x0, symName: __ZNSt3__114__split_bufferIN4sdds13CustomerOrderERNS_9allocatorIS2_EEE5clearB7v160006Ev, symObjAddr: 0x761C, symBinAddr: 0x1000120C4, symSize: 0x28 }
  - { offsetInCU: 0x137DA, offset: 0x4D568, size: 0x8, addend: 0x0, symName: __ZNKSt3__114__split_bufferIN4sdds13CustomerOrderERNS_9allocatorIS2_EEE8capacityB7v160006Ev, symObjAddr: 0x7644, symBinAddr: 0x1000120EC, symSize: 0x40 }
  - { offsetInCU: 0x13800, offset: 0x4D58E, size: 0x8, addend: 0x0, symName: __ZNSt3__114__split_bufferIN4sdds13CustomerOrderERNS_9allocatorIS2_EEE17__destruct_at_endB7v160006EPS2_, symObjAddr: 0x7684, symBinAddr: 0x10001212C, symSize: 0x2C }
  - { offsetInCU: 0x13834, offset: 0x4D5C2, size: 0x8, addend: 0x0, symName: __ZNSt3__114__split_bufferIN4sdds13CustomerOrderERNS_9allocatorIS2_EEE17__destruct_at_endB7v160006EPS2_NS_17integral_constantIbLb0EEE, symObjAddr: 0x76B0, symBinAddr: 0x100012158, symSize: 0x80 }
  - { offsetInCU: 0x13874, offset: 0x4D602, size: 0x8, addend: 0x0, symName: __ZNKSt3__114__split_bufferIN4sdds13CustomerOrderERNS_9allocatorIS2_EEE9__end_capB7v160006Ev, symObjAddr: 0x7730, symBinAddr: 0x1000121D8, symSize: 0x28 }
  - { offsetInCU: 0x1389A, offset: 0x4D628, size: 0x8, addend: 0x0, symName: __ZNKSt3__117__compressed_pairIPN4sdds13CustomerOrderERNS_9allocatorIS2_EEE5firstB7v160006Ev, symObjAddr: 0x7758, symBinAddr: 0x100012200, symSize: 0x24 }
  - { offsetInCU: 0x138C0, offset: 0x4D64E, size: 0x8, addend: 0x0, symName: __ZNSt3__16vectorIN4sdds13CustomerOrderENS_9allocatorIS2_EEE11__make_iterB7v160006EPS2_, symObjAddr: 0x777C, symBinAddr: 0x100012224, symSize: 0x34 }
  - { offsetInCU: 0x138F5, offset: 0x4D683, size: 0x8, addend: 0x0, symName: __ZNSt3__111__wrap_iterIPN4sdds13CustomerOrderEEC1B7v160006EPKvS3_, symObjAddr: 0x77B0, symBinAddr: 0x100012258, symSize: 0x3C }
  - { offsetInCU: 0x1393B, offset: 0x4D6C9, size: 0x8, addend: 0x0, symName: __ZNSt3__111__wrap_iterIPN4sdds13CustomerOrderEEC2B7v160006EPKvS3_, symObjAddr: 0x77EC, symBinAddr: 0x100012294, symSize: 0x24 }
...
