---
triple:          'arm64-apple-darwin'
binary-path:     ws
relocations:
  - { offsetInCU: 0x3E, offset: 0x3E, size: 0x8, addend: 0x0, symName: __ZN4sdds7Station12m_widthFieldE, symObjAddr: 0x1AC00, symBinAddr: 0x10000C008, symSize: 0x0 }
  - { offsetInCU: 0x132, offset: 0x132, size: 0x8, addend: 0x0, symName: __ZN4sdds7Station12id_generatorE, symObjAddr: 0x1AC08, symBinAddr: 0x10000C010, symSize: 0x0 }
  - { offsetInCU: 0x3E52, offset: 0x3E52, size: 0x8, addend: 0x0, symName: __ZNSt3__124__put_character_sequenceB7v160006IcNS_11char_traitsIcEEEERNS_13basic_ostreamIT_T0_EES7_PKS4_m, symObjAddr: 0x1244, symBinAddr: 0x1000026A4, symSize: 0x1EC }
  - { offsetInCU: 0x4AE3, offset: 0x4AE3, size: 0x8, addend: 0x0, symName: __ZNSt3__1lsB7v160006INS_11char_traitsIcEEEERNS_13basic_ostreamIcT_EES6_PKc, symObjAddr: 0x560, symBinAddr: 0x1000019C0, symSize: 0x48 }
  - { offsetInCU: 0x4B29, offset: 0x4B29, size: 0x8, addend: 0x0, symName: __ZNSt3__1lsB7v160006IcNS_11char_traitsIcEEEERNS_13basic_ostreamIT_T0_EES7_RKNS_8__iom_t6E, symObjAddr: 0x5A8, symBinAddr: 0x100001A08, symSize: 0x40 }
  - { offsetInCU: 0x4B78, offset: 0x4B78, size: 0x8, addend: 0x0, symName: __ZNSt3__1lsB7v160006IcNS_11char_traitsIcEENS_9allocatorIcEEEERNS_13basic_ostreamIT_T0_EES9_RKNS_12basic_stringIS6_S7_T1_EE, symObjAddr: 0x5E8, symBinAddr: 0x100001A48, symSize: 0x4C }
  - { offsetInCU: 0x4BD0, offset: 0x4BD0, size: 0x8, addend: 0x0, symName: __ZNSt3__1lsB7v160006INS_11char_traitsIcEEEERNS_13basic_ostreamIcT_EES6_RKNS_8__iom_t4IcEE, symObjAddr: 0x634, symBinAddr: 0x100001A94, symSize: 0x40 }
  - { offsetInCU: 0x4C13, offset: 0x4C13, size: 0x8, addend: 0x0, symName: __ZNSt3__14setwB7v160006Ei, symObjAddr: 0x674, symBinAddr: 0x100001AD4, symSize: 0x2C }
  - { offsetInCU: 0x4C41, offset: 0x4C41, size: 0x8, addend: 0x0, symName: __ZNSt3__17setfillB7v160006IcEENS_8__iom_t4IT_EES2_, symObjAddr: 0x6A0, symBinAddr: 0x100001B00, symSize: 0x2C }
  - { offsetInCU: 0x4C76, offset: 0x4C76, size: 0x8, addend: 0x0, symName: __ZNSt3__15rightB7v160006ERNS_8ios_baseE, symObjAddr: 0x70C, symBinAddr: 0x100001B6C, symSize: 0x30 }
  - { offsetInCU: 0x4CA4, offset: 0x4CA4, size: 0x8, addend: 0x0, symName: __ZNSt3__14leftB7v160006ERNS_8ios_baseE, symObjAddr: 0x73C, symBinAddr: 0x100001B9C, symSize: 0x30 }
  - { offsetInCU: 0x4CD2, offset: 0x4CD2, size: 0x8, addend: 0x0, symName: __ZNSt3__14endlB7v160006IcNS_11char_traitsIcEEEERNS_13basic_ostreamIT_T0_EES7_, symObjAddr: 0x798, symBinAddr: 0x100001BF8, symSize: 0x58 }
  - { offsetInCU: 0x4D12, offset: 0x4D12, size: 0x8, addend: 0x0, symName: __ZNSt3__119__debug_db_insert_cB7v160006INS_12basic_stringIcNS_11char_traitsIcEENS_9allocatorIcEEEEEEvPT_, symObjAddr: 0x980, symBinAddr: 0x100001DE0, symSize: 0x10 }
  - { offsetInCU: 0x4D43, offset: 0x4D43, size: 0x8, addend: 0x0, symName: __ZNSt3__119__libcpp_deallocateB7v160006EPvmm, symObjAddr: 0xDDC, symBinAddr: 0x10000223C, symSize: 0x60 }
  - { offsetInCU: 0x4DA8, offset: 0x4DA8, size: 0x8, addend: 0x0, symName: __ZNSt3__124__is_overaligned_for_newB7v160006Em, symObjAddr: 0xE3C, symBinAddr: 0x10000229C, symSize: 0x20 }
  - { offsetInCU: 0x4DD6, offset: 0x4DD6, size: 0x8, addend: 0x0, symName: __ZNSt3__127__do_deallocate_handle_sizeB7v160006IJSt11align_val_tEEEvPvmDpT_, symObjAddr: 0xE5C, symBinAddr: 0x1000022BC, symSize: 0x30 }
  - { offsetInCU: 0x4E29, offset: 0x4E29, size: 0x8, addend: 0x0, symName: __ZNSt3__127__do_deallocate_handle_sizeB7v160006IJEEEvPvmDpT_, symObjAddr: 0xE8C, symBinAddr: 0x1000022EC, symSize: 0x28 }
  - { offsetInCU: 0x4E67, offset: 0x4E67, size: 0x8, addend: 0x0, symName: __ZNSt3__124__libcpp_operator_deleteB7v160006IJPvSt11align_val_tEEEvDpT_, symObjAddr: 0xEB4, symBinAddr: 0x100002314, symSize: 0x2C }
  - { offsetInCU: 0x4EB0, offset: 0x4EB0, size: 0x8, addend: 0x0, symName: __ZNSt3__124__libcpp_operator_deleteB7v160006IJPvEEEvDpT_, symObjAddr: 0xEE0, symBinAddr: 0x100002340, symSize: 0x24 }
  - { offsetInCU: 0x4F18, offset: 0x4F18, size: 0x8, addend: 0x0, symName: __ZNSt3__19use_facetB7v160006INS_5ctypeIcEEEERKT_RKNS_6localeE, symObjAddr: 0x11E0, symBinAddr: 0x100002640, symSize: 0x2C }
  - { offsetInCU: 0x53E7, offset: 0x53E7, size: 0x8, addend: 0x0, symName: __ZNSt3__116__pad_and_outputB7v160006IcNS_11char_traitsIcEEEENS_19ostreambuf_iteratorIT_T0_EES6_PKS4_S8_S8_RNS_8ios_baseES4_, symObjAddr: 0x1480, symBinAddr: 0x1000028E0, symSize: 0x240 }
  - { offsetInCU: 0x54B6, offset: 0x54B6, size: 0x8, addend: 0x0, symName: __ZNSt3__112__to_addressB7v160006IcEEPT_S2_, symObjAddr: 0x18CC, symBinAddr: 0x100002D2C, symSize: 0x14 }
  - { offsetInCU: 0x54EB, offset: 0x54EB, size: 0x8, addend: 0x0, symName: __ZNSt3__118__constexpr_strlenB7v160006EPKc, symObjAddr: 0x19F8, symBinAddr: 0x100002E58, symSize: 0x24 }
  - { offsetInCU: 0x5517, offset: 0x5517, size: 0x8, addend: 0x0, symName: __ZNSt3__112__to_addressB7v160006IKcEEPT_S3_, symObjAddr: 0x1A44, symBinAddr: 0x100002EA4, symSize: 0x14 }
  - { offsetInCU: 0x7AF9, offset: 0x7AF9, size: 0x8, addend: 0x0, symName: __ZN4sdds7StationC2ERKNSt3__112basic_stringIcNS1_11char_traitsIcEENS1_9allocatorIcEEEE, symObjAddr: 0x0, symBinAddr: 0x100001460, symSize: 0x230 }
  - { offsetInCU: 0x7B62, offset: 0x7B62, size: 0x8, addend: 0x0, symName: __ZNSt3__112basic_stringIcNS_11char_traitsIcEENS_9allocatorIcEEEC1B7v160006Ev, symObjAddr: 0x230, symBinAddr: 0x100001690, symSize: 0x2C }
  - { offsetInCU: 0x7BA2, offset: 0x7BA2, size: 0x8, addend: 0x0, symName: __ZN4sdds9UtilitiesC1Ev, symObjAddr: 0x25C, symBinAddr: 0x1000016BC, symSize: 0x2C }
  - { offsetInCU: 0x7BCD, offset: 0x7BCD, size: 0x8, addend: 0x0, symName: __ZNSt3__112basic_stringIcNS_11char_traitsIcEENS_9allocatorIcEEEaSB7v160006EOS5_, symObjAddr: 0x288, symBinAddr: 0x1000016E8, symSize: 0x34 }
  - { offsetInCU: 0x7C01, offset: 0x7C01, size: 0x8, addend: 0x0, symName: __ZNKSt3__112basic_stringIcNS_11char_traitsIcEENS_9allocatorIcEEE6lengthB7v160006Ev, symObjAddr: 0x2BC, symBinAddr: 0x10000171C, symSize: 0x24 }
  - { offsetInCU: 0x7C25, offset: 0x7C25, size: 0x8, addend: 0x0, symName: __ZN4sdds7StationC1ERKNSt3__112basic_stringIcNS1_11char_traitsIcEENS1_9allocatorIcEEEE, symObjAddr: 0x2E0, symBinAddr: 0x100001740, symSize: 0x34 }
  - { offsetInCU: 0x7C5E, offset: 0x7C5E, size: 0x8, addend: 0x0, symName: __ZNK4sdds7Station11getItemNameEv, symObjAddr: 0x314, symBinAddr: 0x100001774, symSize: 0x18 }
  - { offsetInCU: 0x7C85, offset: 0x7C85, size: 0x8, addend: 0x0, symName: __ZN4sdds7Station19getNextSerialNumberEv, symObjAddr: 0x32C, symBinAddr: 0x10000178C, symSize: 0x20 }
  - { offsetInCU: 0x7CAC, offset: 0x7CAC, size: 0x8, addend: 0x0, symName: __ZNK4sdds7Station11getQuantityEv, symObjAddr: 0x34C, symBinAddr: 0x1000017AC, symSize: 0x18 }
  - { offsetInCU: 0x7CD3, offset: 0x7CD3, size: 0x8, addend: 0x0, symName: __ZN4sdds7Station14updateQuantityEv, symObjAddr: 0x364, symBinAddr: 0x1000017C4, symSize: 0x40 }
  - { offsetInCU: 0x7CFA, offset: 0x7CFA, size: 0x8, addend: 0x0, symName: __ZNK4sdds7Station7displayERNSt3__113basic_ostreamIcNS1_11char_traitsIcEEEEb, symObjAddr: 0x3A4, symBinAddr: 0x100001804, symSize: 0x1BC }
  - { offsetInCU: 0x7D3D, offset: 0x7D3D, size: 0x8, addend: 0x0, symName: __ZNSt3__113basic_ostreamIcNS_11char_traitsIcEEElsB7v160006EPFRNS_8ios_baseES5_E, symObjAddr: 0x6CC, symBinAddr: 0x100001B2C, symSize: 0x40 }
  - { offsetInCU: 0x7D70, offset: 0x7D70, size: 0x8, addend: 0x0, symName: __ZNSt3__113basic_ostreamIcNS_11char_traitsIcEEElsB7v160006EPFRS3_S4_E, symObjAddr: 0x76C, symBinAddr: 0x100001BCC, symSize: 0x2C }
  - { offsetInCU: 0x7DA3, offset: 0x7DA3, size: 0x8, addend: 0x0, symName: __ZN4sdds9UtilitiesC2Ev, symObjAddr: 0x7F0, symBinAddr: 0x100001C50, symSize: 0x1C }
  - { offsetInCU: 0x7DCE, offset: 0x7DCE, size: 0x8, addend: 0x0, symName: __ZNSt3__18__iom_t6C1B7v160006Ei, symObjAddr: 0x80C, symBinAddr: 0x100001C6C, symSize: 0x34 }
  - { offsetInCU: 0x7E04, offset: 0x7E04, size: 0x8, addend: 0x0, symName: __ZNSt3__18__iom_t6C2B7v160006Ei, symObjAddr: 0x840, symBinAddr: 0x100001CA0, symSize: 0x20 }
  - { offsetInCU: 0x7E3B, offset: 0x7E3B, size: 0x8, addend: 0x0, symName: __ZNSt3__18ios_base4setfB7v160006Ejj, symObjAddr: 0x860, symBinAddr: 0x100001CC0, symSize: 0x5C }
  - { offsetInCU: 0x7E8F, offset: 0x7E8F, size: 0x8, addend: 0x0, symName: __ZNSt3__18ios_base6unsetfB7v160006Ej, symObjAddr: 0x8BC, symBinAddr: 0x100001D1C, symSize: 0x28 }
  - { offsetInCU: 0x7EC5, offset: 0x7EC5, size: 0x8, addend: 0x0, symName: __ZNSt3__112basic_stringIcNS_11char_traitsIcEENS_9allocatorIcEEEC2B7v160006Ev, symObjAddr: 0x8E4, symBinAddr: 0x100001D44, symSize: 0x54 }
  - { offsetInCU: 0x7EF2, offset: 0x7EF2, size: 0x8, addend: 0x0, symName: __ZNSt3__117__compressed_pairINS_12basic_stringIcNS_11char_traitsIcEENS_9allocatorIcEEE5__repES5_EC1B7v160006INS_18__default_init_tagESA_EEOT_OT0_, symObjAddr: 0x938, symBinAddr: 0x100001D98, symSize: 0x3C }
  - { offsetInCU: 0x7F48, offset: 0x7F48, size: 0x8, addend: 0x0, symName: __ZNSt3__112basic_stringIcNS_11char_traitsIcEENS_9allocatorIcEEE14__default_initB7v160006Ev, symObjAddr: 0x990, symBinAddr: 0x100001DF0, symSize: 0x40 }
  - { offsetInCU: 0x7F6D, offset: 0x7F6D, size: 0x8, addend: 0x0, symName: __ZNSt3__117__compressed_pairINS_12basic_stringIcNS_11char_traitsIcEENS_9allocatorIcEEE5__repES5_EC2B7v160006INS_18__default_init_tagESA_EEOT_OT0_, symObjAddr: 0x9D0, symBinAddr: 0x100001E30, symSize: 0x3C }
  - { offsetInCU: 0x7FC3, offset: 0x7FC3, size: 0x8, addend: 0x0, symName: __ZNSt3__122__compressed_pair_elemINS_12basic_stringIcNS_11char_traitsIcEENS_9allocatorIcEEE5__repELi0ELb0EEC2B7v160006ENS_18__default_init_tagE, symObjAddr: 0xA0C, symBinAddr: 0x100001E6C, symSize: 0x14 }
  - { offsetInCU: 0x7FF7, offset: 0x7FF7, size: 0x8, addend: 0x0, symName: __ZNSt3__122__compressed_pair_elemINS_9allocatorIcEELi1ELb1EEC2B7v160006ENS_18__default_init_tagE, symObjAddr: 0xA20, symBinAddr: 0x100001E80, symSize: 0x2C }
  - { offsetInCU: 0x802A, offset: 0x802A, size: 0x8, addend: 0x0, symName: __ZNSt3__19allocatorIcEC2B7v160006Ev, symObjAddr: 0xA4C, symBinAddr: 0x100001EAC, symSize: 0x2C }
  - { offsetInCU: 0x8052, offset: 0x8052, size: 0x8, addend: 0x0, symName: __ZNSt3__116__non_trivial_ifILb1ENS_9allocatorIcEEEC2B7v160006Ev, symObjAddr: 0xA78, symBinAddr: 0x100001ED8, symSize: 0x14 }
  - { offsetInCU: 0x807B, offset: 0x807B, size: 0x8, addend: 0x0, symName: __ZNSt3__117__compressed_pairINS_12basic_stringIcNS_11char_traitsIcEENS_9allocatorIcEEE5__repES5_E5firstB7v160006Ev, symObjAddr: 0xA8C, symBinAddr: 0x100001EEC, symSize: 0x24 }
  - { offsetInCU: 0x80A0, offset: 0x80A0, size: 0x8, addend: 0x0, symName: __ZNSt3__122__compressed_pair_elemINS_12basic_stringIcNS_11char_traitsIcEENS_9allocatorIcEEE5__repELi0ELb0EE5__getB7v160006Ev, symObjAddr: 0xAB0, symBinAddr: 0x100001F10, symSize: 0x14 }
  - { offsetInCU: 0x80C5, offset: 0x80C5, size: 0x8, addend: 0x0, symName: __ZNSt3__112basic_stringIcNS_11char_traitsIcEENS_9allocatorIcEEE13__move_assignB7v160006ERS5_NS_17integral_constantIbLb1EEE, symObjAddr: 0xAC4, symBinAddr: 0x100001F24, symSize: 0xC8 }
  - { offsetInCU: 0x8107, offset: 0x8107, size: 0x8, addend: 0x0, symName: __ZNKSt3__112basic_stringIcNS_11char_traitsIcEENS_9allocatorIcEEE9__is_longB7v160006Ev, symObjAddr: 0xB8C, symBinAddr: 0x100001FEC, symSize: 0x38 }
  - { offsetInCU: 0x812C, offset: 0x812C, size: 0x8, addend: 0x0, symName: __ZNSt3__116allocator_traitsINS_9allocatorIcEEE10deallocateB7v160006ERS2_Pcm, symObjAddr: 0xBC4, symBinAddr: 0x100002024, symSize: 0x34 }
  - { offsetInCU: 0x816E, offset: 0x816E, size: 0x8, addend: 0x0, symName: __ZNSt3__112basic_stringIcNS_11char_traitsIcEENS_9allocatorIcEEE7__allocB7v160006Ev, symObjAddr: 0xBF8, symBinAddr: 0x100002058, symSize: 0x24 }
  - { offsetInCU: 0x8193, offset: 0x8193, size: 0x8, addend: 0x0, symName: __ZNSt3__112basic_stringIcNS_11char_traitsIcEENS_9allocatorIcEEE18__get_long_pointerB7v160006Ev, symObjAddr: 0xC1C, symBinAddr: 0x10000207C, symSize: 0x28 }
  - { offsetInCU: 0x81B8, offset: 0x81B8, size: 0x8, addend: 0x0, symName: __ZNKSt3__112basic_stringIcNS_11char_traitsIcEENS_9allocatorIcEEE14__get_long_capB7v160006Ev, symObjAddr: 0xC44, symBinAddr: 0x1000020A4, symSize: 0x30 }
  - { offsetInCU: 0x81DD, offset: 0x81DD, size: 0x8, addend: 0x0, symName: __ZNSt3__112basic_stringIcNS_11char_traitsIcEENS_9allocatorIcEEE19__move_assign_allocB7v160006ERS5_, symObjAddr: 0xC74, symBinAddr: 0x1000020D4, symSize: 0x2C }
  - { offsetInCU: 0x8211, offset: 0x8211, size: 0x8, addend: 0x0, symName: __ZNSt3__112basic_stringIcNS_11char_traitsIcEENS_9allocatorIcEEE16__set_short_sizeB7v160006Em, symObjAddr: 0xCA0, symBinAddr: 0x100002100, symSize: 0x78 }
  - { offsetInCU: 0x8245, offset: 0x8245, size: 0x8, addend: 0x0, symName: __ZNSt3__111char_traitsIcE6assignERcRKc, symObjAddr: 0xD18, symBinAddr: 0x100002178, symSize: 0x24 }
  - { offsetInCU: 0x8276, offset: 0x8276, size: 0x8, addend: 0x0, symName: __ZNSt3__112basic_stringIcNS_11char_traitsIcEENS_9allocatorIcEEE19__get_short_pointerB7v160006Ev, symObjAddr: 0xD3C, symBinAddr: 0x10000219C, symSize: 0x28 }
  - { offsetInCU: 0x829B, offset: 0x829B, size: 0x8, addend: 0x0, symName: __ZNKSt3__117__compressed_pairINS_12basic_stringIcNS_11char_traitsIcEENS_9allocatorIcEEE5__repES5_E5firstB7v160006Ev, symObjAddr: 0xD64, symBinAddr: 0x1000021C4, symSize: 0x24 }
  - { offsetInCU: 0x82C0, offset: 0x82C0, size: 0x8, addend: 0x0, symName: __ZNKSt3__122__compressed_pair_elemINS_12basic_stringIcNS_11char_traitsIcEENS_9allocatorIcEEE5__repELi0ELb0EE5__getB7v160006Ev, symObjAddr: 0xD88, symBinAddr: 0x1000021E8, symSize: 0x14 }
  - { offsetInCU: 0x82E5, offset: 0x82E5, size: 0x8, addend: 0x0, symName: __ZNSt3__19allocatorIcE10deallocateB7v160006EPcm, symObjAddr: 0xD9C, symBinAddr: 0x1000021FC, symSize: 0x40 }
  - { offsetInCU: 0x8326, offset: 0x8326, size: 0x8, addend: 0x0, symName: __ZNSt3__117__compressed_pairINS_12basic_stringIcNS_11char_traitsIcEENS_9allocatorIcEEE5__repES5_E6secondB7v160006Ev, symObjAddr: 0xF04, symBinAddr: 0x100002364, symSize: 0x24 }
  - { offsetInCU: 0x834B, offset: 0x834B, size: 0x8, addend: 0x0, symName: __ZNSt3__122__compressed_pair_elemINS_9allocatorIcEELi1ELb1EE5__getB7v160006Ev, symObjAddr: 0xF28, symBinAddr: 0x100002388, symSize: 0x14 }
  - { offsetInCU: 0x8370, offset: 0x8370, size: 0x8, addend: 0x0, symName: __ZNSt3__112basic_stringIcNS_11char_traitsIcEENS_9allocatorIcEEE19__move_assign_allocB7v160006ERS5_NS_17integral_constantIbLb1EEE, symObjAddr: 0xF3C, symBinAddr: 0x10000239C, symSize: 0x38 }
  - { offsetInCU: 0x83B0, offset: 0x83B0, size: 0x8, addend: 0x0, symName: __ZNSt3__114pointer_traitsIPcE10pointer_toB7v160006ERc, symObjAddr: 0xF74, symBinAddr: 0x1000023D4, symSize: 0x14 }
  - { offsetInCU: 0x83D3, offset: 0x83D3, size: 0x8, addend: 0x0, symName: __ZNKSt3__112basic_stringIcNS_11char_traitsIcEENS_9allocatorIcEEE4sizeB7v160006Ev, symObjAddr: 0xF88, symBinAddr: 0x1000023E8, symSize: 0x54 }
  - { offsetInCU: 0x83F8, offset: 0x83F8, size: 0x8, addend: 0x0, symName: __ZNKSt3__112basic_stringIcNS_11char_traitsIcEENS_9allocatorIcEEE15__get_long_sizeB7v160006Ev, symObjAddr: 0xFDC, symBinAddr: 0x10000243C, symSize: 0x28 }
  - { offsetInCU: 0x841D, offset: 0x841D, size: 0x8, addend: 0x0, symName: __ZNKSt3__112basic_stringIcNS_11char_traitsIcEENS_9allocatorIcEEE16__get_short_sizeB7v160006Ev, symObjAddr: 0x1004, symBinAddr: 0x100002464, symSize: 0x34 }
  - { offsetInCU: 0x8442, offset: 0x8442, size: 0x8, addend: 0x0, symName: __ZNSt3__18ios_base5widthB7v160006El, symObjAddr: 0x1038, symBinAddr: 0x100002498, symSize: 0x2C }
  - { offsetInCU: 0x8487, offset: 0x8487, size: 0x8, addend: 0x0, symName: __ZNSt3__18__iom_t4IcEC1B7v160006Ec, symObjAddr: 0x1064, symBinAddr: 0x1000024C4, symSize: 0x34 }
  - { offsetInCU: 0x84BD, offset: 0x84BD, size: 0x8, addend: 0x0, symName: __ZNSt3__18__iom_t4IcEC2B7v160006Ec, symObjAddr: 0x1098, symBinAddr: 0x1000024F8, symSize: 0x20 }
  - { offsetInCU: 0x84F4, offset: 0x84F4, size: 0x8, addend: 0x0, symName: __ZNSt3__19basic_iosIcNS_11char_traitsIcEEE4fillB7v160006Ec, symObjAddr: 0x10B8, symBinAddr: 0x100002518, symSize: 0x74 }
  - { offsetInCU: 0x8539, offset: 0x8539, size: 0x8, addend: 0x0, symName: __ZNSt3__111char_traitsIcE11eq_int_typeEii, symObjAddr: 0x112C, symBinAddr: 0x10000258C, symSize: 0x28 }
  - { offsetInCU: 0x856A, offset: 0x856A, size: 0x8, addend: 0x0, symName: __ZNSt3__111char_traitsIcE3eofEv, symObjAddr: 0x1154, symBinAddr: 0x1000025B4, symSize: 0x8 }
  - { offsetInCU: 0x857E, offset: 0x857E, size: 0x8, addend: 0x0, symName: __ZNKSt3__19basic_iosIcNS_11char_traitsIcEEE5widenB7v160006Ec, symObjAddr: 0x115C, symBinAddr: 0x1000025BC, symSize: 0x84 }
  - { offsetInCU: 0x85EB, offset: 0x85EB, size: 0x8, addend: 0x0, symName: __ZNKSt3__15ctypeIcE5widenB7v160006Ec, symObjAddr: 0x120C, symBinAddr: 0x10000266C, symSize: 0x38 }
  - { offsetInCU: 0x861F, offset: 0x861F, size: 0x8, addend: 0x0, symName: __ZNSt3__111char_traitsIcE6lengthEPKc, symObjAddr: 0x1430, symBinAddr: 0x100002890, symSize: 0x34 }
  - { offsetInCU: 0x8660, offset: 0x8660, size: 0x8, addend: 0x0, symName: __ZNKSt3__113basic_ostreamIcNS_11char_traitsIcEEE6sentrycvbB7v160006Ev, symObjAddr: 0x1464, symBinAddr: 0x1000028C4, symSize: 0x1C }
  - { offsetInCU: 0x8685, offset: 0x8685, size: 0x8, addend: 0x0, symName: __ZNSt3__119ostreambuf_iteratorIcNS_11char_traitsIcEEEC1B7v160006ERNS_13basic_ostreamIcS2_EE, symObjAddr: 0x16C0, symBinAddr: 0x100002B20, symSize: 0x34 }
  - { offsetInCU: 0x86BB, offset: 0x86BB, size: 0x8, addend: 0x0, symName: __ZNKSt3__18ios_base5flagsB7v160006Ev, symObjAddr: 0x16F4, symBinAddr: 0x100002B54, symSize: 0x18 }
  - { offsetInCU: 0x86E2, offset: 0x86E2, size: 0x8, addend: 0x0, symName: __ZNKSt3__19basic_iosIcNS_11char_traitsIcEEE4fillB7v160006Ev, symObjAddr: 0x170C, symBinAddr: 0x100002B6C, symSize: 0x64 }
  - { offsetInCU: 0x8709, offset: 0x8709, size: 0x8, addend: 0x0, symName: __ZNKSt3__119ostreambuf_iteratorIcNS_11char_traitsIcEEE6failedB7v160006Ev, symObjAddr: 0x1770, symBinAddr: 0x100002BD0, symSize: 0x24 }
  - { offsetInCU: 0x872E, offset: 0x872E, size: 0x8, addend: 0x0, symName: __ZNSt3__19basic_iosIcNS_11char_traitsIcEEE8setstateB7v160006Ej, symObjAddr: 0x1794, symBinAddr: 0x100002BF4, symSize: 0x2C }
  - { offsetInCU: 0x8762, offset: 0x8762, size: 0x8, addend: 0x0, symName: __ZNKSt3__18ios_base5widthB7v160006Ev, symObjAddr: 0x17C0, symBinAddr: 0x100002C20, symSize: 0x18 }
  - { offsetInCU: 0x8789, offset: 0x8789, size: 0x8, addend: 0x0, symName: __ZNSt3__115basic_streambufIcNS_11char_traitsIcEEE5sputnB7v160006EPKcl, symObjAddr: 0x17D8, symBinAddr: 0x100002C38, symSize: 0x3C }
  - { offsetInCU: 0x87CA, offset: 0x87CA, size: 0x8, addend: 0x0, symName: __ZNSt3__112basic_stringIcNS_11char_traitsIcEENS_9allocatorIcEEEC1B7v160006Emc, symObjAddr: 0x1814, symBinAddr: 0x100002C74, symSize: 0x3C }
  - { offsetInCU: 0x8810, offset: 0x8810, size: 0x8, addend: 0x0, symName: __ZNSt3__112basic_stringIcNS_11char_traitsIcEENS_9allocatorIcEEE4dataB7v160006Ev, symObjAddr: 0x1850, symBinAddr: 0x100002CB0, symSize: 0x28 }
  - { offsetInCU: 0x8835, offset: 0x8835, size: 0x8, addend: 0x0, symName: __ZNSt3__112basic_stringIcNS_11char_traitsIcEENS_9allocatorIcEEEC2B7v160006Emc, symObjAddr: 0x1878, symBinAddr: 0x100002CD8, symSize: 0x54 }
  - { offsetInCU: 0x887B, offset: 0x887B, size: 0x8, addend: 0x0, symName: __ZNSt3__112basic_stringIcNS_11char_traitsIcEENS_9allocatorIcEEE13__get_pointerB7v160006Ev, symObjAddr: 0x18E0, symBinAddr: 0x100002D40, symSize: 0x54 }
  - { offsetInCU: 0x88A0, offset: 0x88A0, size: 0x8, addend: 0x0, symName: __ZNSt3__119ostreambuf_iteratorIcNS_11char_traitsIcEEEC2B7v160006ERNS_13basic_ostreamIcS2_EE, symObjAddr: 0x1934, symBinAddr: 0x100002D94, symSize: 0x54 }
  - { offsetInCU: 0x88D6, offset: 0x88D6, size: 0x8, addend: 0x0, symName: __ZNKSt3__19basic_iosIcNS_11char_traitsIcEEE5rdbufB7v160006Ev, symObjAddr: 0x1988, symBinAddr: 0x100002DE8, symSize: 0x24 }
  - { offsetInCU: 0x88FD, offset: 0x88FD, size: 0x8, addend: 0x0, symName: __ZNKSt3__18ios_base5rdbufB7v160006Ev, symObjAddr: 0x19AC, symBinAddr: 0x100002E0C, symSize: 0x18 }
  - { offsetInCU: 0x8922, offset: 0x8922, size: 0x8, addend: 0x0, symName: __ZNSt3__18ios_base8setstateB7v160006Ej, symObjAddr: 0x19C4, symBinAddr: 0x100002E24, symSize: 0x34 }
  - { offsetInCU: 0x8958, offset: 0x8958, size: 0x8, addend: 0x0, symName: __ZNKSt3__112basic_stringIcNS_11char_traitsIcEENS_9allocatorIcEEE4dataB7v160006Ev, symObjAddr: 0x1A1C, symBinAddr: 0x100002E7C, symSize: 0x28 }
  - { offsetInCU: 0x897D, offset: 0x897D, size: 0x8, addend: 0x0, symName: __ZNKSt3__112basic_stringIcNS_11char_traitsIcEENS_9allocatorIcEEE13__get_pointerB7v160006Ev, symObjAddr: 0x1A58, symBinAddr: 0x100002EB8, symSize: 0x54 }
  - { offsetInCU: 0x89A2, offset: 0x89A2, size: 0x8, addend: 0x0, symName: __ZNKSt3__112basic_stringIcNS_11char_traitsIcEENS_9allocatorIcEEE18__get_long_pointerB7v160006Ev, symObjAddr: 0x1AAC, symBinAddr: 0x100002F0C, symSize: 0x28 }
  - { offsetInCU: 0x89C7, offset: 0x89C7, size: 0x8, addend: 0x0, symName: __ZNKSt3__112basic_stringIcNS_11char_traitsIcEENS_9allocatorIcEEE19__get_short_pointerB7v160006Ev, symObjAddr: 0x1AD4, symBinAddr: 0x100002F34, symSize: 0x28 }
  - { offsetInCU: 0x89EC, offset: 0x89EC, size: 0x8, addend: 0x0, symName: __ZNSt3__114pointer_traitsIPKcE10pointer_toB7v160006ERS1_, symObjAddr: 0x1AFC, symBinAddr: 0x100002F5C, symSize: 0x14 }
  - { offsetInCU: 0x3E, offset: 0x8ACE, size: 0x8, addend: 0x0, symName: __ZN4sdds9Utilities11m_delimiterE, symObjAddr: 0x11D4, symBinAddr: 0x10000C000, symSize: 0x0 }
  - { offsetInCU: 0x2A6D, offset: 0xB4FD, size: 0x8, addend: 0x0, symName: __ZNSt3__123__str_find_first_not_ofB7v160006IcmNS_11char_traitsIcEELm18446744073709551615EEET0_PKT_S3_S6_S3_S3_, symObjAddr: 0xE20, symBinAddr: 0x100003560, symSize: 0xDC }
  - { offsetInCU: 0x2B3F, offset: 0xB5CF, size: 0x8, addend: 0x0, symName: __ZNSt3__123__constexpr_char_memchrB7v160006EPKcim, symObjAddr: 0xF94, symBinAddr: 0x1000036AC, symSize: 0x34 }
  - { offsetInCU: 0x2B87, offset: 0xB617, size: 0x8, addend: 0x0, symName: __ZNSt3__122__str_find_last_not_ofB7v160006IcmNS_11char_traitsIcEELm18446744073709551615EEET0_PKT_S3_S6_S3_S3_, symObjAddr: 0x1094, symBinAddr: 0x1000036E0, symSize: 0xDC }
  - { offsetInCU: 0x4ACF, offset: 0xD55F, size: 0x8, addend: 0x0, symName: __ZN4sdds9Utilities13setFieldWidthEm, symObjAddr: 0x0, symBinAddr: 0x100002F70, symSize: 0x20 }
  - { offsetInCU: 0x4B04, offset: 0xD594, size: 0x8, addend: 0x0, symName: __ZNK4sdds9Utilities13getFieldWidthEv, symObjAddr: 0x20, symBinAddr: 0x100002F90, symSize: 0x18 }
  - { offsetInCU: 0x4B2B, offset: 0xD5BB, size: 0x8, addend: 0x0, symName: __ZN4sdds9Utilities12extractTokenERKNSt3__112basic_stringIcNS1_11char_traitsIcEENS1_9allocatorIcEEEERmRb, symObjAddr: 0x38, symBinAddr: 0x100002FA8, symSize: 0x2C8 }
  - { offsetInCU: 0x4B9A, offset: 0xD62A, size: 0x8, addend: 0x0, symName: __ZNKSt3__112basic_stringIcNS_11char_traitsIcEENS_9allocatorIcEEE6substrB7v160006Emm, symObjAddr: 0x32C, symBinAddr: 0x100003270, symSize: 0x68 }
  - { offsetInCU: 0x4BDD, offset: 0xD66D, size: 0x8, addend: 0x0, symName: __ZN4sdds9Utilities4trimERKNSt3__112basic_stringIcNS1_11char_traitsIcEENS1_9allocatorIcEEEE, symObjAddr: 0x3C8, symBinAddr: 0x1000032D8, symSize: 0xB8 }
  - { offsetInCU: 0x4C33, offset: 0xD6C3, size: 0x8, addend: 0x0, symName: __ZNSt3__112basic_stringIcNS_11char_traitsIcEENS_9allocatorIcEEEC1B7v160006IDnEEPKc, symObjAddr: 0x4A4, symBinAddr: 0x100003390, symSize: 0x34 }
  - { offsetInCU: 0x4C6F, offset: 0xD6FF, size: 0x8, addend: 0x0, symName: __ZNKSt3__112basic_stringIcNS_11char_traitsIcEENS_9allocatorIcEEE17find_first_not_ofB7v160006EPKcm, symObjAddr: 0x4D8, symBinAddr: 0x1000033C4, symSize: 0x74 }
  - { offsetInCU: 0x4CB4, offset: 0xD744, size: 0x8, addend: 0x0, symName: __ZNKSt3__112basic_stringIcNS_11char_traitsIcEENS_9allocatorIcEEE16find_last_not_ofB7v160006EPKcm, symObjAddr: 0x54C, symBinAddr: 0x100003438, symSize: 0x74 }
  - { offsetInCU: 0x4CF9, offset: 0xD789, size: 0x8, addend: 0x0, symName: __ZN4sdds9Utilities12setDelimiterEc, symObjAddr: 0x5C0, symBinAddr: 0x1000034AC, symSize: 0x1C }
  - { offsetInCU: 0x4D1E, offset: 0xD7AE, size: 0x8, addend: 0x0, symName: __ZN4sdds9Utilities12getDelimiterEv, symObjAddr: 0x5DC, symBinAddr: 0x1000034C8, symSize: 0xC }
  - { offsetInCU: 0x4D34, offset: 0xD7C4, size: 0x8, addend: 0x0, symName: __ZNSt3__19allocatorIcEC1B7v160006Ev, symObjAddr: 0x7C8, symBinAddr: 0x1000034D4, symSize: 0x2C }
  - { offsetInCU: 0x4D5C, offset: 0xD7EC, size: 0x8, addend: 0x0, symName: __ZNSt3__112basic_stringIcNS_11char_traitsIcEENS_9allocatorIcEEEC2B7v160006IDnEEPKc, symObjAddr: 0xD68, symBinAddr: 0x100003500, symSize: 0x60 }
  - { offsetInCU: 0x4D98, offset: 0xD828, size: 0x8, addend: 0x0, symName: __ZNSt3__111char_traitsIcE4findEPKcmRS2_, symObjAddr: 0xF24, symBinAddr: 0x10000363C, symSize: 0x70 }
  - { offsetInCU: 0xD3B6, offset: 0x1AC36, size: 0x8, addend: 0x0, symName: __ZNSt3__1lsB7v160006INS_11char_traitsIcEEEERNS_13basic_ostreamIcT_EES6_c, symObjAddr: 0xE84, symBinAddr: 0x100004574, symSize: 0x34 }
  - { offsetInCU: 0xD3FC, offset: 0x1AC7C, size: 0x8, addend: 0x0, symName: __ZNSt3__1neB7v160006IPN4sdds7StationEEEbRKNS_11__wrap_iterIT_EES8_, symObjAddr: 0xF70, symBinAddr: 0x100004608, symSize: 0x34 }
  - { offsetInCU: 0xD43F, offset: 0x1ACBF, size: 0x8, addend: 0x0, symName: __ZNSt3__1eqB7v160006IPN4sdds7StationEEEbRKNS_11__wrap_iterIT_EES8_, symObjAddr: 0x10C0, symBinAddr: 0x1000046F8, symSize: 0x48 }
  - { offsetInCU: 0xE27E, offset: 0x1BAFE, size: 0x8, addend: 0x0, symName: __ZNSt3__1plB7v160006IcNS_11char_traitsIcEENS_9allocatorIcEEEENS_12basic_stringIT_T0_T1_EEOS9_PKS6_, symObjAddr: 0x1300, symBinAddr: 0x10000491C, symSize: 0x40 }
  - { offsetInCU: 0xE2D6, offset: 0x1BB56, size: 0x8, addend: 0x0, symName: __ZNSt3__17getlineB7v160006IcNS_11char_traitsIcEENS_9allocatorIcEEEERNS_13basic_istreamIT_T0_EES9_RNS_12basic_stringIS6_S7_T1_EE, symObjAddr: 0x1394, symBinAddr: 0x100004984, symSize: 0x5C }
  - { offsetInCU: 0xE339, offset: 0x1BBB9, size: 0x8, addend: 0x0, symName: __ZNSt3__115__debug_db_swapB7v160006INS_12basic_stringIcNS_11char_traitsIcEENS_9allocatorIcEEEEEEvPT_S8_, symObjAddr: 0x182C, symBinAddr: 0x100004D2C, symSize: 0x14 }
  - { offsetInCU: 0xE378, offset: 0x1BBF8, size: 0x8, addend: 0x0, symName: __ZNSt3__17getlineB7v160006IcNS_11char_traitsIcEENS_9allocatorIcEEEERNS_13basic_istreamIT_T0_EES9_RNS_12basic_stringIS6_S7_T1_EES6_, symObjAddr: 0x1A18, symBinAddr: 0x100004D64, symSize: 0x238 }
  - { offsetInCU: 0xE436, offset: 0x1BCB6, size: 0x8, addend: 0x0, symName: __ZNSt3__125__debug_db_invalidate_allB7v160006INS_12basic_stringIcNS_11char_traitsIcEENS_9allocatorIcEEEEEEvPT_, symObjAddr: 0x2004, symBinAddr: 0x10000522C, symSize: 0x10 }
  - { offsetInCU: 0xE654, offset: 0x1BED4, size: 0x8, addend: 0x0, symName: __ZNSt3__112__to_addressB7v160006IN4sdds7StationEEEPT_S4_, symObjAddr: 0x2560, symBinAddr: 0x1000055B0, symSize: 0x14 }
  - { offsetInCU: 0xE689, offset: 0x1BF09, size: 0x8, addend: 0x0, symName: __ZNSt3__13maxB7v160006ImEERKT_S3_S3_, symObjAddr: 0x2A30, symBinAddr: 0x100005A80, symSize: 0x2C }
  - { offsetInCU: 0xE6CC, offset: 0x1BF4C, size: 0x8, addend: 0x0, symName: __ZNSt3__13minB7v160006ImEERKT_S3_S3_, symObjAddr: 0x2A5C, symBinAddr: 0x100005AAC, symSize: 0x2C }
  - { offsetInCU: 0xE8F9, offset: 0x1C179, size: 0x8, addend: 0x0, symName: __ZNSt3__13minB7v160006ImNS_6__lessImmEEEERKT_S5_S5_T0_, symObjAddr: 0x2AE8, symBinAddr: 0x100005B38, symSize: 0x54 }
  - { offsetInCU: 0xE98E, offset: 0x1C20E, size: 0x8, addend: 0x0, symName: __ZNSt3__120__throw_length_errorB7v160006EPKc, symObjAddr: 0x2BD0, symBinAddr: 0x100005C20, symSize: 0x64 }
  - { offsetInCU: 0xE9B7, offset: 0x1C237, size: 0x8, addend: 0x0, symName: __ZNSt3__13maxB7v160006ImNS_6__lessImmEEEERKT_S5_S5_T0_, symObjAddr: 0x2D14, symBinAddr: 0x100005D64, symSize: 0x54 }
  - { offsetInCU: 0xEA11, offset: 0x1C291, size: 0x8, addend: 0x0, symName: __ZNSt3__119__allocate_at_leastB7v160006INS_9allocatorIN4sdds7StationEEEEENS_19__allocation_resultINS_16allocator_traitsIT_E7pointerEEERS7_m, symObjAddr: 0x2E84, symBinAddr: 0x100005ED4, symSize: 0x40 }
  - { offsetInCU: 0xEA54, offset: 0x1C2D4, size: 0x8, addend: 0x0, symName: __ZNSt3__117__libcpp_allocateB7v160006Emm, symObjAddr: 0x3028, symBinAddr: 0x100006078, symSize: 0x60 }
  - { offsetInCU: 0xEAAE, offset: 0x1C32E, size: 0x8, addend: 0x0, symName: __ZNSt3__121__libcpp_operator_newB7v160006IJmSt11align_val_tEEEPvDpT_, symObjAddr: 0x30A8, symBinAddr: 0x1000060D8, symSize: 0x2C }
  - { offsetInCU: 0xEAFB, offset: 0x1C37B, size: 0x8, addend: 0x0, symName: __ZNSt3__121__libcpp_operator_newB7v160006IJmEEEPvDpT_, symObjAddr: 0x30D4, symBinAddr: 0x100006104, symSize: 0x24 }
  - { offsetInCU: 0xEB34, offset: 0x1C3B4, size: 0x8, addend: 0x0, symName: __ZNSt3__142__uninitialized_allocator_move_if_noexceptB7v160006INS_9allocatorIN4sdds7StationEEENS_16reverse_iteratorIPS3_EES7_S7_EET2_RT_T0_T1_S8_, symObjAddr: 0x3230, symBinAddr: 0x100006260, symSize: 0x12C }
  - { offsetInCU: 0xEBD4, offset: 0x1C454, size: 0x8, addend: 0x0, symName: __ZNSt3__14swapB7v160006IPN4sdds7StationEEENS_9enable_ifIXaasr21is_move_constructibleIT_EE5valuesr18is_move_assignableIS5_EE5valueEvE4typeERS5_S8_, symObjAddr: 0x33A8, symBinAddr: 0x1000063D8, symSize: 0x3C }
  - { offsetInCU: 0xEC25, offset: 0x1C4A5, size: 0x8, addend: 0x0, symName: __ZNSt3__125__debug_db_invalidate_allB7v160006INS_6vectorIN4sdds7StationENS_9allocatorIS3_EEEEEEvPT_, symObjAddr: 0x34AC, symBinAddr: 0x1000064DC, symSize: 0x10 }
  - { offsetInCU: 0xEC56, offset: 0x1C4D6, size: 0x8, addend: 0x0, symName: __ZNSt3__122__make_exception_guardB7v160006INS_29_AllocatorDestroyRangeReverseINS_9allocatorIN4sdds7StationEEENS_16reverse_iteratorIPS4_EEEEEENS_28__exception_guard_exceptionsIT_EESB_, symObjAddr: 0x3504, symBinAddr: 0x100006534, symSize: 0x4C }
  - { offsetInCU: 0xEC8C, offset: 0x1C50C, size: 0x8, addend: 0x0, symName: __ZNSt3__1neB7v160006IPN4sdds7StationES3_EEbRKNS_16reverse_iteratorIT_EERKNS4_IT0_EE, symObjAddr: 0x3594, symBinAddr: 0x1000065C4, symSize: 0x48 }
  - { offsetInCU: 0xECD8, offset: 0x1C558, size: 0x8, addend: 0x0, symName: __ZNSt3__112__to_addressB7v160006INS_16reverse_iteratorIPN4sdds7StationEEEvEENS_5decayIDTclsr19__to_address_helperIT_EE6__callclsr3stdE7declvalIRKS7_EEEEE4typeES9_, symObjAddr: 0x35DC, symBinAddr: 0x10000660C, symSize: 0x24 }
  - { offsetInCU: 0xED39, offset: 0x1C5B9, size: 0x8, addend: 0x0, symName: __ZNSt3__119__allocator_destroyB7v160006INS_9allocatorIN4sdds7StationEEENS_16reverse_iteratorINS5_IPS3_EEEES8_EEvRT_T0_T1_, symObjAddr: 0x388C, symBinAddr: 0x1000068BC, symSize: 0x70 }
  - { offsetInCU: 0xED9E, offset: 0x1C61E, size: 0x8, addend: 0x0, symName: __ZNSt3__1neB7v160006INS_16reverse_iteratorIPN4sdds7StationEEES5_EEbRKNS1_IT_EERKNS1_IT0_EE, symObjAddr: 0x3938, symBinAddr: 0x100006968, symSize: 0x60 }
  - { offsetInCU: 0xEDEA, offset: 0x1C66A, size: 0x8, addend: 0x0, symName: __ZNSt3__112__to_addressB7v160006INS_16reverse_iteratorINS1_IPN4sdds7StationEEEEEvEENS_5decayIDTclsr19__to_address_helperIT_EE6__callclsr3stdE7declvalIRKS8_EEEEE4typeESA_, symObjAddr: 0x39C4, symBinAddr: 0x1000069F4, symSize: 0x24 }
  - { offsetInCU: 0xEE4B, offset: 0x1C6CB, size: 0x8, addend: 0x0, symName: __ZNSt3__119__debug_db_insert_cB7v160006INS_6vectorIN4sdds7StationENS_9allocatorIS3_EEEEEEvPT_, symObjAddr: 0x4798, symBinAddr: 0x100006F58, symSize: 0x10 }
  - { offsetInCU: 0xEE7C, offset: 0x1C6FC, size: 0x8, addend: 0x0, symName: __ZNSt3__118__debug_db_erase_cB7v160006INS_6vectorIN4sdds7StationENS_9allocatorIS3_EEEEEEvPT_, symObjAddr: 0x4988, symBinAddr: 0x100007148, symSize: 0x10 }
  - { offsetInCU: 0xF245, offset: 0x1CAC5, size: 0x8, addend: 0x0, symName: __ZSt28__throw_bad_array_new_lengthB7v160006v, symObjAddr: 0x2FF4, symBinAddr: 0x100006044, symSize: 0x34 }
  - { offsetInCU: 0xFC34, offset: 0x1D4B4, size: 0x8, addend: 0x0, symName: __ZNSt3__16vectorIN4sdds7StationENS_9allocatorIS2_EEE26__swap_out_circular_bufferERNS_14__split_bufferIS2_RS4_EE, symObjAddr: 0x2830, symBinAddr: 0x100005880, symSize: 0x118 }
  - { offsetInCU: 0x11A33, offset: 0x1F2B3, size: 0x8, addend: 0x0, symName: _main, symObjAddr: 0x0, symBinAddr: 0x1000037BC, symSize: 0xB1C }
  - { offsetInCU: 0x11C17, offset: 0x1F497, size: 0x8, addend: 0x0, symName: __ZNSt3__16vectorIN4sdds7StationENS_9allocatorIS2_EEEC1B7v160006Ev, symObjAddr: 0xBE8, symBinAddr: 0x1000042D8, symSize: 0x2C }
  - { offsetInCU: 0x11C3F, offset: 0x1F4BF, size: 0x8, addend: 0x0, symName: __ZL12loadStationsPKcRNSt3__16vectorIN4sdds7StationENS1_9allocatorIS4_EEEE, symObjAddr: 0xC14, symBinAddr: 0x100004304, symSize: 0x270 }
  - { offsetInCU: 0x11CAE, offset: 0x1F52E, size: 0x8, addend: 0x0, symName: __ZNSt3__16vectorIN4sdds7StationENS_9allocatorIS2_EEE5beginB7v160006Ev, symObjAddr: 0xF10, symBinAddr: 0x1000045A8, symSize: 0x30 }
  - { offsetInCU: 0x11CD5, offset: 0x1F555, size: 0x8, addend: 0x0, symName: __ZNSt3__16vectorIN4sdds7StationENS_9allocatorIS2_EEE3endB7v160006Ev, symObjAddr: 0xF40, symBinAddr: 0x1000045D8, symSize: 0x30 }
  - { offsetInCU: 0x11CFC, offset: 0x1F57C, size: 0x8, addend: 0x0, symName: __ZNKSt3__111__wrap_iterIPN4sdds7StationEEdeB7v160006Ev, symObjAddr: 0xFA4, symBinAddr: 0x10000463C, symSize: 0x18 }
  - { offsetInCU: 0x11D21, offset: 0x1F5A1, size: 0x8, addend: 0x0, symName: __ZNSt3__111__wrap_iterIPN4sdds7StationEEppB7v160006Ev, symObjAddr: 0xFBC, symBinAddr: 0x100004654, symSize: 0x20 }
  - { offsetInCU: 0x11D46, offset: 0x1F5C6, size: 0x8, addend: 0x0, symName: __ZNSt3__16vectorIN4sdds7StationENS_9allocatorIS2_EEEixB7v160006Em, symObjAddr: 0xFDC, symBinAddr: 0x100004674, symSize: 0x2C }
  - { offsetInCU: 0x11D86, offset: 0x1F606, size: 0x8, addend: 0x0, symName: '__ZZ4mainEN3$_0D1Ev', symObjAddr: 0x103C, symBinAddr: 0x1000046A0, symSize: 0x2C }
  - { offsetInCU: 0x11DB5, offset: 0x1F635, size: 0x8, addend: 0x0, symName: __ZNSt3__16vectorIN4sdds7StationENS_9allocatorIS2_EEED1B7v160006Ev, symObjAddr: 0x1094, symBinAddr: 0x1000046CC, symSize: 0x2C }
  - { offsetInCU: 0x11DDD, offset: 0x1F65D, size: 0x8, addend: 0x0, symName: __ZNKSt3__111__wrap_iterIPN4sdds7StationEE4baseB7v160006Ev, symObjAddr: 0x1108, symBinAddr: 0x100004740, symSize: 0x18 }
  - { offsetInCU: 0x11E02, offset: 0x1F682, size: 0x8, addend: 0x0, symName: '__ZZ4mainEN3$_0D2Ev', symObjAddr: 0x1120, symBinAddr: 0x100004758, symSize: 0x30 }
  - { offsetInCU: 0x11F33, offset: 0x1F7B3, size: 0x8, addend: 0x0, symName: __ZNSt3__114basic_ifstreamIcNS_11char_traitsIcEEEC1EPKcj, symObjAddr: 0x116C, symBinAddr: 0x100004788, symSize: 0x16C }
  - { offsetInCU: 0x11F7C, offset: 0x1F7FC, size: 0x8, addend: 0x0, symName: __ZNKSt3__19basic_iosIcNS_11char_traitsIcEEEntB7v160006Ev, symObjAddr: 0x12D8, symBinAddr: 0x1000048F4, symSize: 0x28 }
  - { offsetInCU: 0x11FA1, offset: 0x1F821, size: 0x8, addend: 0x0, symName: __ZNKSt3__19basic_iosIcNS_11char_traitsIcEEE3eofB7v160006Ev, symObjAddr: 0x136C, symBinAddr: 0x10000495C, symSize: 0x28 }
  - { offsetInCU: 0x11FC6, offset: 0x1F846, size: 0x8, addend: 0x0, symName: __ZNSt3__16vectorIN4sdds7StationENS_9allocatorIS2_EEE9push_backB7v160006EOS2_, symObjAddr: 0x13F0, symBinAddr: 0x1000049E0, symSize: 0x6C }
  - { offsetInCU: 0x11FFC, offset: 0x1F87C, size: 0x8, addend: 0x0, symName: __ZN4sdds7StationD1Ev, symObjAddr: 0x145C, symBinAddr: 0x100004A4C, symSize: 0x2C }
  - { offsetInCU: 0x12026, offset: 0x1F8A6, size: 0x8, addend: 0x0, symName: __ZNSt3__114basic_ifstreamIcNS_11char_traitsIcEEE5closeEv, symObjAddr: 0x1488, symBinAddr: 0x100004A78, symSize: 0x58 }
  - { offsetInCU: 0x12052, offset: 0x1F8D2, size: 0x8, addend: 0x0, symName: __ZNSt3__114basic_ifstreamIcNS_11char_traitsIcEEED1Ev, symObjAddr: 0x14E0, symBinAddr: 0x100004AD0, symSize: 0x40 }
  - { offsetInCU: 0x1207E, offset: 0x1F8FE, size: 0x8, addend: 0x0, symName: __ZNSt3__19basic_iosIcNS_11char_traitsIcEEEC2B7v160006Ev, symObjAddr: 0x1520, symBinAddr: 0x100004B10, symSize: 0x44 }
  - { offsetInCU: 0x120A6, offset: 0x1F926, size: 0x8, addend: 0x0, symName: __ZNSt3__113basic_istreamIcNS_11char_traitsIcEEEC2B7v160006EPNS_15basic_streambufIcS2_EE, symObjAddr: 0x1564, symBinAddr: 0x100004B54, symSize: 0x64 }
  - { offsetInCU: 0x120E8, offset: 0x1F968, size: 0x8, addend: 0x0, symName: __ZNSt3__18ios_baseC2B7v160006Ev, symObjAddr: 0x15F4, symBinAddr: 0x100004BB8, symSize: 0x24 }
  - { offsetInCU: 0x12111, offset: 0x1F991, size: 0x8, addend: 0x0, symName: __ZNSt3__19basic_iosIcNS_11char_traitsIcEEE4initB7v160006EPNS_15basic_streambufIcS2_EE, symObjAddr: 0x1618, symBinAddr: 0x100004BDC, symSize: 0x44 }
  - { offsetInCU: 0x12147, offset: 0x1F9C7, size: 0x8, addend: 0x0, symName: __ZNKSt3__19basic_iosIcNS_11char_traitsIcEEE4failB7v160006Ev, symObjAddr: 0x1698, symBinAddr: 0x100004C20, symSize: 0x28 }
  - { offsetInCU: 0x1216C, offset: 0x1F9EC, size: 0x8, addend: 0x0, symName: __ZNKSt3__18ios_base4failB7v160006Ev, symObjAddr: 0x16C0, symBinAddr: 0x100004C48, symSize: 0x28 }
  - { offsetInCU: 0x12193, offset: 0x1FA13, size: 0x8, addend: 0x0, symName: __ZNSt3__112basic_stringIcNS_11char_traitsIcEENS_9allocatorIcEEEC1B7v160006EOS5_, symObjAddr: 0x16E8, symBinAddr: 0x100004C70, symSize: 0x34 }
  - { offsetInCU: 0x121CA, offset: 0x1FA4A, size: 0x8, addend: 0x0, symName: __ZNSt3__112basic_stringIcNS_11char_traitsIcEENS_9allocatorIcEEEC2B7v160006EOS5_, symObjAddr: 0x171C, symBinAddr: 0x100004CA4, symSize: 0x88 }
  - { offsetInCU: 0x12206, offset: 0x1FA86, size: 0x8, addend: 0x0, symName: __ZNKSt3__18ios_base3eofB7v160006Ev, symObjAddr: 0x19F4, symBinAddr: 0x100004D40, symSize: 0x24 }
  - { offsetInCU: 0x1224B, offset: 0x1FACB, size: 0x8, addend: 0x0, symName: __ZNKSt3__113basic_istreamIcNS_11char_traitsIcEEE6sentrycvbB7v160006Ev, symObjAddr: 0x1CD4, symBinAddr: 0x100004F9C, symSize: 0x1C }
  - { offsetInCU: 0x12270, offset: 0x1FAF0, size: 0x8, addend: 0x0, symName: __ZNSt3__112basic_stringIcNS_11char_traitsIcEENS_9allocatorIcEEE5clearB7v160006Ev, symObjAddr: 0x1CF0, symBinAddr: 0x100004FB8, symSize: 0x88 }
  - { offsetInCU: 0x12297, offset: 0x1FB17, size: 0x8, addend: 0x0, symName: __ZNSt3__115basic_streambufIcNS_11char_traitsIcEEE6sbumpcB7v160006Ev, symObjAddr: 0x1D9C, symBinAddr: 0x100005040, symSize: 0x78 }
  - { offsetInCU: 0x122BC, offset: 0x1FB3C, size: 0x8, addend: 0x0, symName: __ZNSt3__111char_traitsIcE12to_char_typeEi, symObjAddr: 0x1E3C, symBinAddr: 0x1000050B8, symSize: 0x18 }
  - { offsetInCU: 0x122DF, offset: 0x1FB5F, size: 0x8, addend: 0x0, symName: __ZNSt3__111char_traitsIcE2eqEcc, symObjAddr: 0x1E54, symBinAddr: 0x1000050D0, symSize: 0x28 }
  - { offsetInCU: 0x12310, offset: 0x1FB90, size: 0x8, addend: 0x0, symName: __ZNKSt3__112basic_stringIcNS_11char_traitsIcEENS_9allocatorIcEEE8max_sizeB7v160006Ev, symObjAddr: 0x1ED0, symBinAddr: 0x1000050F8, symSize: 0xAC }
  - { offsetInCU: 0x12361, offset: 0x1FBE1, size: 0x8, addend: 0x0, symName: __ZNSt3__18ios_base18__setstate_nothrowB7v160006Ej, symObjAddr: 0x1F7C, symBinAddr: 0x1000051A4, symSize: 0x64 }
  - { offsetInCU: 0x12395, offset: 0x1FC15, size: 0x8, addend: 0x0, symName: __ZNKSt3__19basic_iosIcNS_11char_traitsIcEEE10exceptionsB7v160006Ev, symObjAddr: 0x1FE0, symBinAddr: 0x100005208, symSize: 0x24 }
  - { offsetInCU: 0x123BA, offset: 0x1FC3A, size: 0x8, addend: 0x0, symName: __ZNSt3__112basic_stringIcNS_11char_traitsIcEENS_9allocatorIcEEE15__set_long_sizeB7v160006Em, symObjAddr: 0x2060, symBinAddr: 0x10000523C, symSize: 0x38 }
  - { offsetInCU: 0x123EE, offset: 0x1FC6E, size: 0x8, addend: 0x0, symName: __ZNSt3__111char_traitsIcE11to_int_typeEc, symObjAddr: 0x2164, symBinAddr: 0x100005274, symSize: 0x14 }
  - { offsetInCU: 0x1241B, offset: 0x1FC9B, size: 0x8, addend: 0x0, symName: __ZNSt3__116allocator_traitsINS_9allocatorIcEEE8max_sizeB7v160006IS2_vEEmRKS2_, symObjAddr: 0x21D4, symBinAddr: 0x100005288, symSize: 0x24 }
  - { offsetInCU: 0x1244A, offset: 0x1FCCA, size: 0x8, addend: 0x0, symName: __ZNKSt3__112basic_stringIcNS_11char_traitsIcEENS_9allocatorIcEEE7__allocB7v160006Ev, symObjAddr: 0x21F8, symBinAddr: 0x1000052AC, symSize: 0x24 }
  - { offsetInCU: 0x1246F, offset: 0x1FCEF, size: 0x8, addend: 0x0, symName: __ZNSt3__114numeric_limitsImE3maxB7v160006Ev, symObjAddr: 0x221C, symBinAddr: 0x1000052D0, symSize: 0x14 }
  - { offsetInCU: 0x12483, offset: 0x1FD03, size: 0x8, addend: 0x0, symName: __ZNKSt3__19allocatorIcE8max_sizeB7v160006Ev, symObjAddr: 0x2230, symBinAddr: 0x1000052E4, symSize: 0x14 }
  - { offsetInCU: 0x124A8, offset: 0x1FD28, size: 0x8, addend: 0x0, symName: __ZNKSt3__117__compressed_pairINS_12basic_stringIcNS_11char_traitsIcEENS_9allocatorIcEEE5__repES5_E6secondB7v160006Ev, symObjAddr: 0x2244, symBinAddr: 0x1000052F8, symSize: 0x24 }
  - { offsetInCU: 0x124CD, offset: 0x1FD4D, size: 0x8, addend: 0x0, symName: __ZNKSt3__122__compressed_pair_elemINS_9allocatorIcEELi1ELb1EE5__getB7v160006Ev, symObjAddr: 0x2268, symBinAddr: 0x10000531C, symSize: 0x14 }
  - { offsetInCU: 0x124F2, offset: 0x1FD72, size: 0x8, addend: 0x0, symName: __ZNSt3__123__libcpp_numeric_limitsImLb1EE3maxB7v160006Ev, symObjAddr: 0x227C, symBinAddr: 0x100005330, symSize: 0x8 }
  - { offsetInCU: 0x12506, offset: 0x1FD86, size: 0x8, addend: 0x0, symName: __ZNKSt3__18ios_base10exceptionsB7v160006Ev, symObjAddr: 0x2284, symBinAddr: 0x100005338, symSize: 0x18 }
  - { offsetInCU: 0x1252D, offset: 0x1FDAD, size: 0x8, addend: 0x0, symName: __ZNSt3__16vectorIN4sdds7StationENS_9allocatorIS2_EEE9__end_capB7v160006Ev, symObjAddr: 0x2300, symBinAddr: 0x100005350, symSize: 0x28 }
  - { offsetInCU: 0x12557, offset: 0x1FDD7, size: 0x8, addend: 0x0, symName: __ZNSt3__16vectorIN4sdds7StationENS_9allocatorIS2_EEE22__construct_one_at_endB7v160006IJS2_EEEvDpOT_, symObjAddr: 0x2328, symBinAddr: 0x100005378, symSize: 0x90 }
  - { offsetInCU: 0x125A5, offset: 0x1FE25, size: 0x8, addend: 0x0, symName: __ZNSt3__16vectorIN4sdds7StationENS_9allocatorIS2_EEE21__push_back_slow_pathIS2_EEvOT_, symObjAddr: 0x23B8, symBinAddr: 0x100005408, symSize: 0xD8 }
  - { offsetInCU: 0x12602, offset: 0x1FE82, size: 0x8, addend: 0x0, symName: __ZNSt3__117__compressed_pairIPN4sdds7StationENS_9allocatorIS2_EEE5firstB7v160006Ev, symObjAddr: 0x2490, symBinAddr: 0x1000054E0, symSize: 0x24 }
  - { offsetInCU: 0x12627, offset: 0x1FEA7, size: 0x8, addend: 0x0, symName: __ZNSt3__122__compressed_pair_elemIPN4sdds7StationELi0ELb0EE5__getB7v160006Ev, symObjAddr: 0x24B4, symBinAddr: 0x100005504, symSize: 0x14 }
  - { offsetInCU: 0x12665, offset: 0x1FEE5, size: 0x8, addend: 0x0, symName: __ZNSt3__16vectorIN4sdds7StationENS_9allocatorIS2_EEE21_ConstructTransactionC1B7v160006ERS5_m, symObjAddr: 0x24C8, symBinAddr: 0x100005518, symSize: 0x3C }
  - { offsetInCU: 0x126AB, offset: 0x1FF2B, size: 0x8, addend: 0x0, symName: __ZNSt3__116allocator_traitsINS_9allocatorIN4sdds7StationEEEE9constructB7v160006IS3_JS3_EvEEvRS4_PT_DpOT0_, symObjAddr: 0x2504, symBinAddr: 0x100005554, symSize: 0x34 }
  - { offsetInCU: 0x12703, offset: 0x1FF83, size: 0x8, addend: 0x0, symName: __ZNSt3__16vectorIN4sdds7StationENS_9allocatorIS2_EEE7__allocB7v160006Ev, symObjAddr: 0x2538, symBinAddr: 0x100005588, symSize: 0x28 }
  - { offsetInCU: 0x12728, offset: 0x1FFA8, size: 0x8, addend: 0x0, symName: __ZNSt3__16vectorIN4sdds7StationENS_9allocatorIS2_EEE21_ConstructTransactionD1B7v160006Ev, symObjAddr: 0x2574, symBinAddr: 0x1000055C4, symSize: 0x2C }
  - { offsetInCU: 0x12750, offset: 0x1FFD0, size: 0x8, addend: 0x0, symName: __ZNSt3__16vectorIN4sdds7StationENS_9allocatorIS2_EEE21_ConstructTransactionC2B7v160006ERS5_m, symObjAddr: 0x25A0, symBinAddr: 0x1000055F0, symSize: 0x4C }
  - { offsetInCU: 0x12797, offset: 0x20017, size: 0x8, addend: 0x0, symName: __ZNSt3__19allocatorIN4sdds7StationEE9constructB7v160006IS2_JS2_EEEvPT_DpOT0_, symObjAddr: 0x25EC, symBinAddr: 0x10000563C, symSize: 0x30 }
  - { offsetInCU: 0x127EC, offset: 0x2006C, size: 0x8, addend: 0x0, symName: __ZN4sdds7StationC1EOS0_, symObjAddr: 0x261C, symBinAddr: 0x10000566C, symSize: 0x34 }
  - { offsetInCU: 0x1281F, offset: 0x2009F, size: 0x8, addend: 0x0, symName: __ZN4sdds7StationC2EOS0_, symObjAddr: 0x2650, symBinAddr: 0x1000056A0, symSize: 0x68 }
  - { offsetInCU: 0x12852, offset: 0x200D2, size: 0x8, addend: 0x0, symName: __ZNSt3__117__compressed_pairIPN4sdds7StationENS_9allocatorIS2_EEE6secondB7v160006Ev, symObjAddr: 0x26B8, symBinAddr: 0x100005708, symSize: 0x24 }
  - { offsetInCU: 0x12877, offset: 0x200F7, size: 0x8, addend: 0x0, symName: __ZNSt3__122__compressed_pair_elemINS_9allocatorIN4sdds7StationEEELi1ELb1EE5__getB7v160006Ev, symObjAddr: 0x26DC, symBinAddr: 0x10000572C, symSize: 0x14 }
  - { offsetInCU: 0x1289C, offset: 0x2011C, size: 0x8, addend: 0x0, symName: __ZNSt3__16vectorIN4sdds7StationENS_9allocatorIS2_EEE21_ConstructTransactionD2B7v160006Ev, symObjAddr: 0x26F0, symBinAddr: 0x100005740, symSize: 0x20 }
  - { offsetInCU: 0x128C5, offset: 0x20145, size: 0x8, addend: 0x0, symName: __ZNKSt3__16vectorIN4sdds7StationENS_9allocatorIS2_EEE11__recommendB7v160006Em, symObjAddr: 0x2710, symBinAddr: 0x100005760, symSize: 0xB4 }
  - { offsetInCU: 0x12919, offset: 0x20199, size: 0x8, addend: 0x0, symName: __ZNKSt3__16vectorIN4sdds7StationENS_9allocatorIS2_EEE4sizeB7v160006Ev, symObjAddr: 0x27C4, symBinAddr: 0x100005814, symSize: 0x28 }
  - { offsetInCU: 0x1293E, offset: 0x201BE, size: 0x8, addend: 0x0, symName: __ZNSt3__114__split_bufferIN4sdds7StationERNS_9allocatorIS2_EEEC1EmmS5_, symObjAddr: 0x27EC, symBinAddr: 0x10000583C, symSize: 0x44 }
  - { offsetInCU: 0x12993, offset: 0x20213, size: 0x8, addend: 0x0, symName: __ZNSt3__114__split_bufferIN4sdds7StationERNS_9allocatorIS2_EEED1Ev, symObjAddr: 0x2948, symBinAddr: 0x100005998, symSize: 0x2C }
  - { offsetInCU: 0x129BE, offset: 0x2023E, size: 0x8, addend: 0x0, symName: __ZNKSt3__16vectorIN4sdds7StationENS_9allocatorIS2_EEE8max_sizeEv, symObjAddr: 0x2974, symBinAddr: 0x1000059C4, symSize: 0x60 }
  - { offsetInCU: 0x129E5, offset: 0x20265, size: 0x8, addend: 0x0, symName: __ZNKSt3__16vectorIN4sdds7StationENS_9allocatorIS2_EEE20__throw_length_errorB7v160006Ev, symObjAddr: 0x29D4, symBinAddr: 0x100005A24, symSize: 0x1C }
  - { offsetInCU: 0x12A0A, offset: 0x2028A, size: 0x8, addend: 0x0, symName: __ZNKSt3__16vectorIN4sdds7StationENS_9allocatorIS2_EEE8capacityB7v160006Ev, symObjAddr: 0x29F0, symBinAddr: 0x100005A40, symSize: 0x40 }
  - { offsetInCU: 0x12A39, offset: 0x202B9, size: 0x8, addend: 0x0, symName: __ZNSt3__116allocator_traitsINS_9allocatorIN4sdds7StationEEEE8max_sizeB7v160006IS4_vEEmRKS4_, symObjAddr: 0x2A88, symBinAddr: 0x100005AD8, symSize: 0x24 }
  - { offsetInCU: 0x12A68, offset: 0x202E8, size: 0x8, addend: 0x0, symName: __ZNKSt3__16vectorIN4sdds7StationENS_9allocatorIS2_EEE7__allocB7v160006Ev, symObjAddr: 0x2AAC, symBinAddr: 0x100005AFC, symSize: 0x28 }
  - { offsetInCU: 0x12A8D, offset: 0x2030D, size: 0x8, addend: 0x0, symName: __ZNSt3__114numeric_limitsIlE3maxB7v160006Ev, symObjAddr: 0x2AD4, symBinAddr: 0x100005B24, symSize: 0x14 }
  - { offsetInCU: 0x12AB5, offset: 0x20335, size: 0x8, addend: 0x0, symName: __ZNKSt3__16__lessImmEclB7v160006ERKmS3_, symObjAddr: 0x2B3C, symBinAddr: 0x100005B8C, symSize: 0x34 }
  - { offsetInCU: 0x12AF6, offset: 0x20376, size: 0x8, addend: 0x0, symName: __ZNKSt3__19allocatorIN4sdds7StationEE8max_sizeB7v160006Ev, symObjAddr: 0x2B70, symBinAddr: 0x100005BC0, symSize: 0x20 }
  - { offsetInCU: 0x12B1B, offset: 0x2039B, size: 0x8, addend: 0x0, symName: __ZNKSt3__117__compressed_pairIPN4sdds7StationENS_9allocatorIS2_EEE6secondB7v160006Ev, symObjAddr: 0x2B90, symBinAddr: 0x100005BE0, symSize: 0x24 }
  - { offsetInCU: 0x12B40, offset: 0x203C0, size: 0x8, addend: 0x0, symName: __ZNKSt3__122__compressed_pair_elemINS_9allocatorIN4sdds7StationEEELi1ELb1EE5__getB7v160006Ev, symObjAddr: 0x2BB4, symBinAddr: 0x100005C04, symSize: 0x14 }
  - { offsetInCU: 0x12B65, offset: 0x203E5, size: 0x8, addend: 0x0, symName: __ZNSt3__123__libcpp_numeric_limitsIlLb1EE3maxB7v160006Ev, symObjAddr: 0x2BC8, symBinAddr: 0x100005C18, symSize: 0x8 }
  - { offsetInCU: 0x12B79, offset: 0x203F9, size: 0x8, addend: 0x0, symName: __ZNSt12length_errorC1B7v160006EPKc, symObjAddr: 0x2C34, symBinAddr: 0x100005C84, symSize: 0x34 }
  - { offsetInCU: 0x12BAF, offset: 0x2042F, size: 0x8, addend: 0x0, symName: __ZNSt12length_errorC2B7v160006EPKc, symObjAddr: 0x2C68, symBinAddr: 0x100005CB8, symSize: 0x4C }
  - { offsetInCU: 0x12BE5, offset: 0x20465, size: 0x8, addend: 0x0, symName: __ZNKSt3__16vectorIN4sdds7StationENS_9allocatorIS2_EEE9__end_capB7v160006Ev, symObjAddr: 0x2CB4, symBinAddr: 0x100005D04, symSize: 0x28 }
  - { offsetInCU: 0x12C0A, offset: 0x2048A, size: 0x8, addend: 0x0, symName: __ZNKSt3__117__compressed_pairIPN4sdds7StationENS_9allocatorIS2_EEE5firstB7v160006Ev, symObjAddr: 0x2CDC, symBinAddr: 0x100005D2C, symSize: 0x24 }
  - { offsetInCU: 0x12C2F, offset: 0x204AF, size: 0x8, addend: 0x0, symName: __ZNKSt3__122__compressed_pair_elemIPN4sdds7StationELi0ELb0EE5__getB7v160006Ev, symObjAddr: 0x2D00, symBinAddr: 0x100005D50, symSize: 0x14 }
  - { offsetInCU: 0x12C54, offset: 0x204D4, size: 0x8, addend: 0x0, symName: __ZNSt3__114__split_bufferIN4sdds7StationERNS_9allocatorIS2_EEEC2EmmS5_, symObjAddr: 0x2D68, symBinAddr: 0x100005DB8, symSize: 0xE0 }
  - { offsetInCU: 0x12CCB, offset: 0x2054B, size: 0x8, addend: 0x0, symName: __ZNSt3__117__compressed_pairIPN4sdds7StationERNS_9allocatorIS2_EEEC1B7v160006IDnS6_EEOT_OT0_, symObjAddr: 0x2E48, symBinAddr: 0x100005E98, symSize: 0x3C }
  - { offsetInCU: 0x12D21, offset: 0x205A1, size: 0x8, addend: 0x0, symName: __ZNSt3__114__split_bufferIN4sdds7StationERNS_9allocatorIS2_EEE7__allocB7v160006Ev, symObjAddr: 0x2EC4, symBinAddr: 0x100005F14, symSize: 0x28 }
  - { offsetInCU: 0x12D46, offset: 0x205C6, size: 0x8, addend: 0x0, symName: __ZNSt3__114__split_bufferIN4sdds7StationERNS_9allocatorIS2_EEE9__end_capB7v160006Ev, symObjAddr: 0x2EEC, symBinAddr: 0x100005F3C, symSize: 0x28 }
  - { offsetInCU: 0x12D6B, offset: 0x205EB, size: 0x8, addend: 0x0, symName: __ZNSt3__117__compressed_pairIPN4sdds7StationERNS_9allocatorIS2_EEEC2B7v160006IDnS6_EEOT_OT0_, symObjAddr: 0x2F14, symBinAddr: 0x100005F64, symSize: 0x48 }
  - { offsetInCU: 0x12DC1, offset: 0x20641, size: 0x8, addend: 0x0, symName: __ZNSt3__122__compressed_pair_elemIPN4sdds7StationELi0ELb0EEC2B7v160006IDnvEEOT_, symObjAddr: 0x2F5C, symBinAddr: 0x100005FAC, symSize: 0x1C }
  - { offsetInCU: 0x12E03, offset: 0x20683, size: 0x8, addend: 0x0, symName: __ZNSt3__122__compressed_pair_elemIRNS_9allocatorIN4sdds7StationEEELi1ELb0EEC2B7v160006IS5_vEEOT_, symObjAddr: 0x2F78, symBinAddr: 0x100005FC8, symSize: 0x20 }
  - { offsetInCU: 0x12E45, offset: 0x206C5, size: 0x8, addend: 0x0, symName: __ZNSt3__19allocatorIN4sdds7StationEE8allocateB7v160006Em, symObjAddr: 0x2F98, symBinAddr: 0x100005FE8, symSize: 0x5C }
  - { offsetInCU: 0x12E78, offset: 0x206F8, size: 0x8, addend: 0x0, symName: __ZNSt3__117__compressed_pairIPN4sdds7StationERNS_9allocatorIS2_EEE6secondB7v160006Ev, symObjAddr: 0x30F8, symBinAddr: 0x100006128, symSize: 0x28 }
  - { offsetInCU: 0x12E9D, offset: 0x2071D, size: 0x8, addend: 0x0, symName: __ZNSt3__122__compressed_pair_elemIRNS_9allocatorIN4sdds7StationEEELi1ELb0EE5__getB7v160006Ev, symObjAddr: 0x3120, symBinAddr: 0x100006150, symSize: 0x18 }
  - { offsetInCU: 0x12EC2, offset: 0x20742, size: 0x8, addend: 0x0, symName: __ZNSt3__117__compressed_pairIPN4sdds7StationERNS_9allocatorIS2_EEE5firstB7v160006Ev, symObjAddr: 0x3138, symBinAddr: 0x100006168, symSize: 0x24 }
  - { offsetInCU: 0x12EE7, offset: 0x20767, size: 0x8, addend: 0x0, symName: __ZNKSt3__16vectorIN4sdds7StationENS_9allocatorIS2_EEE17__annotate_deleteB7v160006Ev, symObjAddr: 0x315C, symBinAddr: 0x10000618C, symSize: 0xD4 }
  - { offsetInCU: 0x12F0C, offset: 0x2078C, size: 0x8, addend: 0x0, symName: __ZNSt3__116reverse_iteratorIPN4sdds7StationEEC1B7v160006ES3_, symObjAddr: 0x335C, symBinAddr: 0x10000638C, symSize: 0x34 }
  - { offsetInCU: 0x12F42, offset: 0x207C2, size: 0x8, addend: 0x0, symName: __ZNKSt3__116reverse_iteratorIPN4sdds7StationEE4baseB7v160006Ev, symObjAddr: 0x3390, symBinAddr: 0x1000063C0, symSize: 0x18 }
  - { offsetInCU: 0x12F67, offset: 0x207E7, size: 0x8, addend: 0x0, symName: __ZNKSt3__16vectorIN4sdds7StationENS_9allocatorIS2_EEE14__annotate_newB7v160006Em, symObjAddr: 0x33E4, symBinAddr: 0x100006414, symSize: 0xC8 }
  - { offsetInCU: 0x12F9B, offset: 0x2081B, size: 0x8, addend: 0x0, symName: __ZNKSt3__16vectorIN4sdds7StationENS_9allocatorIS2_EEE31__annotate_contiguous_containerB7v160006EPKvS7_S7_S7_, symObjAddr: 0x34BC, symBinAddr: 0x1000064EC, symSize: 0x20 }
  - { offsetInCU: 0x12FF0, offset: 0x20870, size: 0x8, addend: 0x0, symName: __ZNKSt3__16vectorIN4sdds7StationENS_9allocatorIS2_EEE4dataB7v160006Ev, symObjAddr: 0x34DC, symBinAddr: 0x10000650C, symSize: 0x28 }
  - { offsetInCU: 0x13015, offset: 0x20895, size: 0x8, addend: 0x0, symName: __ZNSt3__129_AllocatorDestroyRangeReverseINS_9allocatorIN4sdds7StationEEENS_16reverse_iteratorIPS3_EEEC1B7v160006ERS4_RS7_SA_, symObjAddr: 0x3550, symBinAddr: 0x100006580, symSize: 0x44 }
  - { offsetInCU: 0x1306A, offset: 0x208EA, size: 0x8, addend: 0x0, symName: __ZNKSt3__116reverse_iteratorIPN4sdds7StationEEdeB7v160006Ev, symObjAddr: 0x3600, symBinAddr: 0x100006630, symSize: 0x28 }
  - { offsetInCU: 0x1309D, offset: 0x2091D, size: 0x8, addend: 0x0, symName: __ZNSt3__116reverse_iteratorIPN4sdds7StationEEppB7v160006Ev, symObjAddr: 0x3628, symBinAddr: 0x100006658, symSize: 0x20 }
  - { offsetInCU: 0x130C2, offset: 0x20942, size: 0x8, addend: 0x0, symName: __ZNSt3__128__exception_guard_exceptionsINS_29_AllocatorDestroyRangeReverseINS_9allocatorIN4sdds7StationEEENS_16reverse_iteratorIPS4_EEEEE10__completeB7v160006Ev, symObjAddr: 0x3648, symBinAddr: 0x100006678, symSize: 0x1C }
  - { offsetInCU: 0x130E7, offset: 0x20967, size: 0x8, addend: 0x0, symName: __ZNSt3__128__exception_guard_exceptionsINS_29_AllocatorDestroyRangeReverseINS_9allocatorIN4sdds7StationEEENS_16reverse_iteratorIPS4_EEEEED1B7v160006Ev, symObjAddr: 0x3664, symBinAddr: 0x100006694, symSize: 0x2C }
  - { offsetInCU: 0x1310F, offset: 0x2098F, size: 0x8, addend: 0x0, symName: __ZNSt3__128__exception_guard_exceptionsINS_29_AllocatorDestroyRangeReverseINS_9allocatorIN4sdds7StationEEENS_16reverse_iteratorIPS4_EEEEEC1B7v160006ES9_, symObjAddr: 0x3690, symBinAddr: 0x1000066C0, symSize: 0x34 }
  - { offsetInCU: 0x13146, offset: 0x209C6, size: 0x8, addend: 0x0, symName: __ZNSt3__128__exception_guard_exceptionsINS_29_AllocatorDestroyRangeReverseINS_9allocatorIN4sdds7StationEEENS_16reverse_iteratorIPS4_EEEEEC2B7v160006ES9_, symObjAddr: 0x36C4, symBinAddr: 0x1000066F4, symSize: 0x30 }
  - { offsetInCU: 0x1317E, offset: 0x209FE, size: 0x8, addend: 0x0, symName: __ZNSt3__129_AllocatorDestroyRangeReverseINS_9allocatorIN4sdds7StationEEENS_16reverse_iteratorIPS3_EEEC2B7v160006ERS4_RS7_SA_, symObjAddr: 0x36F4, symBinAddr: 0x100006724, symSize: 0x38 }
  - { offsetInCU: 0x131D9, offset: 0x20A59, size: 0x8, addend: 0x0, symName: __ZNSt3__119__to_address_helperINS_16reverse_iteratorIPN4sdds7StationEEEvE6__callB7v160006ERKS5_, symObjAddr: 0x372C, symBinAddr: 0x10000675C, symSize: 0x38 }
  - { offsetInCU: 0x131FC, offset: 0x20A7C, size: 0x8, addend: 0x0, symName: __ZNKSt3__116reverse_iteratorIPN4sdds7StationEEptB7v160006Ev, symObjAddr: 0x3764, symBinAddr: 0x100006794, symSize: 0x24 }
  - { offsetInCU: 0x13221, offset: 0x20AA1, size: 0x8, addend: 0x0, symName: __ZNSt3__128__exception_guard_exceptionsINS_29_AllocatorDestroyRangeReverseINS_9allocatorIN4sdds7StationEEENS_16reverse_iteratorIPS4_EEEEED2B7v160006Ev, symObjAddr: 0x3788, symBinAddr: 0x1000067B8, symSize: 0x50 }
  - { offsetInCU: 0x13249, offset: 0x20AC9, size: 0x8, addend: 0x0, symName: __ZNKSt3__129_AllocatorDestroyRangeReverseINS_9allocatorIN4sdds7StationEEENS_16reverse_iteratorIPS3_EEEclB7v160006Ev, symObjAddr: 0x37D8, symBinAddr: 0x100006808, symSize: 0xB4 }
  - { offsetInCU: 0x1326F, offset: 0x20AEF, size: 0x8, addend: 0x0, symName: __ZNSt3__116reverse_iteratorINS0_IPN4sdds7StationEEEEC1B7v160006ES4_, symObjAddr: 0x38FC, symBinAddr: 0x10000692C, symSize: 0x3C }
  - { offsetInCU: 0x132A5, offset: 0x20B25, size: 0x8, addend: 0x0, symName: __ZNSt3__116allocator_traitsINS_9allocatorIN4sdds7StationEEEE7destroyB7v160006IS3_vEEvRS4_PT_, symObjAddr: 0x3998, symBinAddr: 0x1000069C8, symSize: 0x2C }
  - { offsetInCU: 0x132E3, offset: 0x20B63, size: 0x8, addend: 0x0, symName: __ZNSt3__116reverse_iteratorINS0_IPN4sdds7StationEEEEppB7v160006Ev, symObjAddr: 0x39E8, symBinAddr: 0x100006A18, symSize: 0x30 }
  - { offsetInCU: 0x13308, offset: 0x20B88, size: 0x8, addend: 0x0, symName: __ZNKSt3__116reverse_iteratorINS0_IPN4sdds7StationEEEE4baseB7v160006Ev, symObjAddr: 0x3A18, symBinAddr: 0x100006A48, symSize: 0x24 }
  - { offsetInCU: 0x1332D, offset: 0x20BAD, size: 0x8, addend: 0x0, symName: __ZNSt3__19allocatorIN4sdds7StationEE7destroyB7v160006EPS2_, symObjAddr: 0x3A3C, symBinAddr: 0x100006A6C, symSize: 0x28 }
  - { offsetInCU: 0x13365, offset: 0x20BE5, size: 0x8, addend: 0x0, symName: __ZNSt3__119__to_address_helperINS_16reverse_iteratorINS1_IPN4sdds7StationEEEEEvE6__callB7v160006ERKS6_, symObjAddr: 0x3A64, symBinAddr: 0x100006A94, symSize: 0x38 }
  - { offsetInCU: 0x13388, offset: 0x20C08, size: 0x8, addend: 0x0, symName: __ZNKSt3__116reverse_iteratorINS0_IPN4sdds7StationEEEEptB7v160006Ev, symObjAddr: 0x3A9C, symBinAddr: 0x100006ACC, symSize: 0x24 }
  - { offsetInCU: 0x133AD, offset: 0x20C2D, size: 0x8, addend: 0x0, symName: __ZNKSt3__116reverse_iteratorINS0_IPN4sdds7StationEEEEdeB7v160006Ev, symObjAddr: 0x3AC0, symBinAddr: 0x100006AF0, symSize: 0x34 }
  - { offsetInCU: 0x133E0, offset: 0x20C60, size: 0x8, addend: 0x0, symName: __ZNSt3__116reverse_iteratorIPN4sdds7StationEEmmB7v160006Ev, symObjAddr: 0x3AF4, symBinAddr: 0x100006B24, symSize: 0x20 }
  - { offsetInCU: 0x13405, offset: 0x20C85, size: 0x8, addend: 0x0, symName: __ZNSt3__116reverse_iteratorINS0_IPN4sdds7StationEEEEC2B7v160006ES4_, symObjAddr: 0x3B14, symBinAddr: 0x100006B44, symSize: 0x2C }
  - { offsetInCU: 0x1343C, offset: 0x20CBC, size: 0x8, addend: 0x0, symName: __ZNSt3__116reverse_iteratorIPN4sdds7StationEEC2B7v160006ES3_, symObjAddr: 0x3B40, symBinAddr: 0x100006B70, symSize: 0x28 }
  - { offsetInCU: 0x13473, offset: 0x20CF3, size: 0x8, addend: 0x0, symName: __ZNSt3__114__split_bufferIN4sdds7StationERNS_9allocatorIS2_EEED2Ev, symObjAddr: 0x3B68, symBinAddr: 0x100006B98, symSize: 0x8C }
  - { offsetInCU: 0x1349E, offset: 0x20D1E, size: 0x8, addend: 0x0, symName: __ZNSt3__114__split_bufferIN4sdds7StationERNS_9allocatorIS2_EEE5clearB7v160006Ev, symObjAddr: 0x3BF4, symBinAddr: 0x100006C24, symSize: 0x28 }
  - { offsetInCU: 0x134C3, offset: 0x20D43, size: 0x8, addend: 0x0, symName: __ZNSt3__116allocator_traitsINS_9allocatorIN4sdds7StationEEEE10deallocateB7v160006ERS4_PS3_m, symObjAddr: 0x3C1C, symBinAddr: 0x100006C4C, symSize: 0x34 }
  - { offsetInCU: 0x13505, offset: 0x20D85, size: 0x8, addend: 0x0, symName: __ZNKSt3__114__split_bufferIN4sdds7StationERNS_9allocatorIS2_EEE8capacityB7v160006Ev, symObjAddr: 0x3C50, symBinAddr: 0x100006C80, symSize: 0x40 }
  - { offsetInCU: 0x1352A, offset: 0x20DAA, size: 0x8, addend: 0x0, symName: __ZNSt3__114__split_bufferIN4sdds7StationERNS_9allocatorIS2_EEE17__destruct_at_endB7v160006EPS2_, symObjAddr: 0x3C90, symBinAddr: 0x100006CC0, symSize: 0x2C }
  - { offsetInCU: 0x1355D, offset: 0x20DDD, size: 0x8, addend: 0x0, symName: __ZNSt3__114__split_bufferIN4sdds7StationERNS_9allocatorIS2_EEE17__destruct_at_endB7v160006EPS2_NS_17integral_constantIbLb0EEE, symObjAddr: 0x3CBC, symBinAddr: 0x100006CEC, symSize: 0x80 }
  - { offsetInCU: 0x1359D, offset: 0x20E1D, size: 0x8, addend: 0x0, symName: __ZNSt3__19allocatorIN4sdds7StationEE10deallocateB7v160006EPS2_m, symObjAddr: 0x3D3C, symBinAddr: 0x100006D6C, symSize: 0x44 }
  - { offsetInCU: 0x135DE, offset: 0x20E5E, size: 0x8, addend: 0x0, symName: __ZNKSt3__114__split_bufferIN4sdds7StationERNS_9allocatorIS2_EEE9__end_capB7v160006Ev, symObjAddr: 0x3E88, symBinAddr: 0x100006DB0, symSize: 0x28 }
  - { offsetInCU: 0x13603, offset: 0x20E83, size: 0x8, addend: 0x0, symName: __ZNKSt3__117__compressed_pairIPN4sdds7StationERNS_9allocatorIS2_EEE5firstB7v160006Ev, symObjAddr: 0x3EB0, symBinAddr: 0x100006DD8, symSize: 0x24 }
  - { offsetInCU: 0x13628, offset: 0x20EA8, size: 0x8, addend: 0x0, symName: __ZN4sdds7StationD2Ev, symObjAddr: 0x3ED4, symBinAddr: 0x100006DFC, symSize: 0x3C }
  - { offsetInCU: 0x13652, offset: 0x20ED2, size: 0x8, addend: 0x0, symName: __ZNSt3__114basic_ifstreamIcNS_11char_traitsIcEEED2Ev, symObjAddr: 0x3F10, symBinAddr: 0x100006E38, symSize: 0x64 }
  - { offsetInCU: 0x1368A, offset: 0x20F0A, size: 0x8, addend: 0x0, symName: __ZTv0_n24_NSt3__114basic_ifstreamIcNS_11char_traitsIcEEED1Ev, symObjAddr: 0x3F74, symBinAddr: 0x100006E9C, symSize: 0x28 }
  - { offsetInCU: 0x136BF, offset: 0x20F3F, size: 0x8, addend: 0x0, symName: __ZNSt3__16vectorIN4sdds7StationENS_9allocatorIS2_EEEC2B7v160006Ev, symObjAddr: 0x4704, symBinAddr: 0x100006EC4, symSize: 0x58 }
  - { offsetInCU: 0x136E7, offset: 0x20F67, size: 0x8, addend: 0x0, symName: __ZNSt3__117__compressed_pairIPN4sdds7StationENS_9allocatorIS2_EEEC1B7v160006IDnNS_18__default_init_tagEEEOT_OT0_, symObjAddr: 0x475C, symBinAddr: 0x100006F1C, symSize: 0x3C }
  - { offsetInCU: 0x1373D, offset: 0x20FBD, size: 0x8, addend: 0x0, symName: __ZNSt3__117__compressed_pairIPN4sdds7StationENS_9allocatorIS2_EEEC2B7v160006IDnNS_18__default_init_tagEEEOT_OT0_, symObjAddr: 0x47A8, symBinAddr: 0x100006F68, symSize: 0x40 }
  - { offsetInCU: 0x13793, offset: 0x21013, size: 0x8, addend: 0x0, symName: __ZNSt3__122__compressed_pair_elemINS_9allocatorIN4sdds7StationEEELi1ELb1EEC2B7v160006ENS_18__default_init_tagE, symObjAddr: 0x47E8, symBinAddr: 0x100006FA8, symSize: 0x2C }
  - { offsetInCU: 0x137C6, offset: 0x21046, size: 0x8, addend: 0x0, symName: __ZNSt3__19allocatorIN4sdds7StationEEC2B7v160006Ev, symObjAddr: 0x4814, symBinAddr: 0x100006FD4, symSize: 0x2C }
  - { offsetInCU: 0x137EE, offset: 0x2106E, size: 0x8, addend: 0x0, symName: __ZNSt3__116__non_trivial_ifILb1ENS_9allocatorIN4sdds7StationEEEEC2B7v160006Ev, symObjAddr: 0x4840, symBinAddr: 0x100007000, symSize: 0x14 }
  - { offsetInCU: 0x13817, offset: 0x21097, size: 0x8, addend: 0x0, symName: __ZNSt3__16vectorIN4sdds7StationENS_9allocatorIS2_EEED2B7v160006Ev, symObjAddr: 0x4854, symBinAddr: 0x100007014, symSize: 0x44 }
  - { offsetInCU: 0x1383F, offset: 0x210BF, size: 0x8, addend: 0x0, symName: __ZNSt3__16vectorIN4sdds7StationENS_9allocatorIS2_EEE16__destroy_vectorC1ERS5_, symObjAddr: 0x4898, symBinAddr: 0x100007058, symSize: 0x34 }
  - { offsetInCU: 0x13876, offset: 0x210F6, size: 0x8, addend: 0x0, symName: __ZNSt3__16vectorIN4sdds7StationENS_9allocatorIS2_EEE16__destroy_vectorclB7v160006Ev, symObjAddr: 0x48CC, symBinAddr: 0x10000708C, symSize: 0x9C }
  - { offsetInCU: 0x1389B, offset: 0x2111B, size: 0x8, addend: 0x0, symName: __ZNSt3__16vectorIN4sdds7StationENS_9allocatorIS2_EEE16__destroy_vectorC2ERS5_, symObjAddr: 0x4968, symBinAddr: 0x100007128, symSize: 0x20 }
  - { offsetInCU: 0x138D3, offset: 0x21153, size: 0x8, addend: 0x0, symName: __ZNSt3__16vectorIN4sdds7StationENS_9allocatorIS2_EEE7__clearB7v160006Ev, symObjAddr: 0x4998, symBinAddr: 0x100007158, symSize: 0x28 }
  - { offsetInCU: 0x138F8, offset: 0x21178, size: 0x8, addend: 0x0, symName: __ZNSt3__16vectorIN4sdds7StationENS_9allocatorIS2_EEE22__base_destruct_at_endB7v160006EPS2_, symObjAddr: 0x49C0, symBinAddr: 0x100007180, symSize: 0x8C }
  - { offsetInCU: 0x1393B, offset: 0x211BB, size: 0x8, addend: 0x0, symName: __ZNSt3__16vectorIN4sdds7StationENS_9allocatorIS2_EEE11__make_iterB7v160006EPS2_, symObjAddr: 0x4B40, symBinAddr: 0x10000720C, symSize: 0x34 }
  - { offsetInCU: 0x1396F, offset: 0x211EF, size: 0x8, addend: 0x0, symName: __ZNSt3__111__wrap_iterIPN4sdds7StationEEC1B7v160006EPKvS3_, symObjAddr: 0x4B74, symBinAddr: 0x100007240, symSize: 0x3C }
  - { offsetInCU: 0x139B3, offset: 0x21233, size: 0x8, addend: 0x0, symName: __ZNSt3__111__wrap_iterIPN4sdds7StationEEC2B7v160006EPKvS3_, symObjAddr: 0x4BB0, symBinAddr: 0x10000727C, symSize: 0x24 }
...
