---
triple:          'arm64-apple-darwin'
binary-path:     ws
relocations:
  - { offsetInCU: 0x52E2, offset: 0x52E2, size: 0x8, addend: 0x0, symName: __ZNSt3__16copy_nB7v160006IPKcmPcEENS_9enable_ifIXsr33__is_cpp17_random_access_iteratorIT_EE5valueET1_E4typeES5_T0_S6_, symObjAddr: 0x28A4, symBinAddr: 0x1000054FC, symSize: 0x44 }
  - { offsetInCU: 0x647F, offset: 0x647F, size: 0x8, addend: 0x0, symName: __ZNSt3__1neB7v160006IPPN4sdds8ResourceEEEbRKNS_11__wrap_iterIT_EES9_, symObjAddr: 0x328, symBinAddr: 0x100002F80, symSize: 0x34 }
  - { offsetInCU: 0x64C2, offset: 0x64C2, size: 0x8, addend: 0x0, symName: __ZNSt3__1eqB7v160006IcNS_11char_traitsIcEENS_9allocatorIcEEEEbRKNS_12basic_stringIT_T0_T1_EEPKS6_, symObjAddr: 0x574, symBinAddr: 0x1000031CC, symSize: 0xAC }
  - { offsetInCU: 0x6529, offset: 0x6529, size: 0x8, addend: 0x0, symName: __ZNSt3__1plB7v160006IcNS_11char_traitsIcEENS_9allocatorIcEEEENS_12basic_stringIT_T0_T1_EERKS9_SB_, symObjAddr: 0x620, symBinAddr: 0x100003278, symSize: 0x134 }
  - { offsetInCU: 0x65CA, offset: 0x65CA, size: 0x8, addend: 0x0, symName: __ZNSt3__1neB7v160006IPKPN4sdds8ResourceEEEbRKNS_11__wrap_iterIT_EESA_, symObjAddr: 0x8DC, symBinAddr: 0x100003534, symSize: 0x34 }
  - { offsetInCU: 0x660D, offset: 0x660D, size: 0x8, addend: 0x0, symName: __ZNSt3__1eqB7v160006INS_9allocatorIcEEEEbRKNS_12basic_stringIcNS_11char_traitsIcEET_EES9_, symObjAddr: 0xDB8, symBinAddr: 0x100003A10, symSize: 0x148 }
  - { offsetInCU: 0x6680, offset: 0x6680, size: 0x8, addend: 0x0, symName: __ZNSt3__1neB7v160006IPKN4sdds7OpFlagsEEEbRKNS_11__wrap_iterIT_EES9_, symObjAddr: 0xF00, symBinAddr: 0x100003B58, symSize: 0x34 }
  - { offsetInCU: 0x66C3, offset: 0x66C3, size: 0x8, addend: 0x0, symName: __ZNSt3__14findB7v160006INS_11__wrap_iterIPKN4sdds7OpFlagsEEES3_EET_S7_S7_RKT0_, symObjAddr: 0xF34, symBinAddr: 0x100003B8C, symSize: 0x80 }
  - { offsetInCU: 0x671D, offset: 0x671D, size: 0x8, addend: 0x0, symName: __ZNSt3__119__debug_db_insert_cB7v160006INS_12basic_stringIcNS_11char_traitsIcEENS_9allocatorIcEEEEEEvPT_, symObjAddr: 0x1284, symBinAddr: 0x100003EDC, symSize: 0x10 }
  - { offsetInCU: 0x674E, offset: 0x674E, size: 0x8, addend: 0x0, symName: __ZNSt3__118__constexpr_strlenB7v160006EPKc, symObjAddr: 0x145C, symBinAddr: 0x1000040B4, symSize: 0x24 }
  - { offsetInCU: 0x677A, offset: 0x677A, size: 0x8, addend: 0x0, symName: __ZNSt3__1eqB7v160006IPPN4sdds8ResourceEEEbRKNS_11__wrap_iterIT_EES9_, symObjAddr: 0x1480, symBinAddr: 0x1000040D8, symSize: 0x48 }
  - { offsetInCU: 0x67BD, offset: 0x67BD, size: 0x8, addend: 0x0, symName: __ZNSt3__1eqB7v160006IPKPN4sdds8ResourceEEEbRKNS_11__wrap_iterIT_EESA_, symObjAddr: 0x14E0, symBinAddr: 0x100004138, symSize: 0x48 }
  - { offsetInCU: 0x6800, offset: 0x6800, size: 0x8, addend: 0x0, symName: __ZNSt3__1eqB7v160006IPKN4sdds7OpFlagsEEEbRKNS_11__wrap_iterIT_EES9_, symObjAddr: 0x1540, symBinAddr: 0x100004198, symSize: 0x48 }
  - { offsetInCU: 0x6843, offset: 0x6843, size: 0x8, addend: 0x0, symName: __ZNSt3__119__debug_db_insert_cB7v160006INS_6vectorIPN4sdds8ResourceENS_9allocatorIS4_EEEEEEvPT_, symObjAddr: 0x1634, symBinAddr: 0x10000428C, symSize: 0x10 }
  - { offsetInCU: 0x6874, offset: 0x6874, size: 0x8, addend: 0x0, symName: __ZNSt3__118__debug_db_erase_cB7v160006INS_6vectorIPN4sdds8ResourceENS_9allocatorIS4_EEEEEEvPT_, symObjAddr: 0x18F8, symBinAddr: 0x100004550, symSize: 0x10 }
  - { offsetInCU: 0x68A5, offset: 0x68A5, size: 0x8, addend: 0x0, symName: __ZNSt3__112__to_addressB7v160006IPN4sdds8ResourceEEEPT_S5_, symObjAddr: 0x1A14, symBinAddr: 0x10000466C, symSize: 0x14 }
  - { offsetInCU: 0x68DA, offset: 0x68DA, size: 0x8, addend: 0x0, symName: __ZNSt3__119__libcpp_deallocateB7v160006EPvmm, symObjAddr: 0x1B34, symBinAddr: 0x10000478C, symSize: 0x60 }
  - { offsetInCU: 0x693F, offset: 0x693F, size: 0x8, addend: 0x0, symName: __ZNSt3__124__is_overaligned_for_newB7v160006Em, symObjAddr: 0x1B94, symBinAddr: 0x1000047EC, symSize: 0x20 }
  - { offsetInCU: 0x696D, offset: 0x696D, size: 0x8, addend: 0x0, symName: __ZNSt3__127__do_deallocate_handle_sizeB7v160006IJSt11align_val_tEEEvPvmDpT_, symObjAddr: 0x1BB4, symBinAddr: 0x10000480C, symSize: 0x30 }
  - { offsetInCU: 0x69C0, offset: 0x69C0, size: 0x8, addend: 0x0, symName: __ZNSt3__127__do_deallocate_handle_sizeB7v160006IJEEEvPvmDpT_, symObjAddr: 0x1BE4, symBinAddr: 0x10000483C, symSize: 0x28 }
  - { offsetInCU: 0x69FE, offset: 0x69FE, size: 0x8, addend: 0x0, symName: __ZNSt3__124__libcpp_operator_deleteB7v160006IJPvSt11align_val_tEEEvDpT_, symObjAddr: 0x1C0C, symBinAddr: 0x100004864, symSize: 0x2C }
  - { offsetInCU: 0x6A47, offset: 0x6A47, size: 0x8, addend: 0x0, symName: __ZNSt3__124__libcpp_operator_deleteB7v160006IJPvEEEvDpT_, symObjAddr: 0x1C38, symBinAddr: 0x100004890, symSize: 0x24 }
  - { offsetInCU: 0x6A7C, offset: 0x6A7C, size: 0x8, addend: 0x0, symName: __ZNSt3__112__to_addressB7v160006IcEEPT_S2_, symObjAddr: 0x1F18, symBinAddr: 0x100004B70, symSize: 0x14 }
  - { offsetInCU: 0x6C9D, offset: 0x6C9D, size: 0x8, addend: 0x0, symName: __ZNSt3__120__throw_length_errorB7v160006EPKc, symObjAddr: 0x25CC, symBinAddr: 0x100005224, symSize: 0x64 }
  - { offsetInCU: 0x6CC5, offset: 0x6CC5, size: 0x8, addend: 0x0, symName: __ZNSt3__117__libcpp_allocateB7v160006Emm, symObjAddr: 0x2758, symBinAddr: 0x1000053B0, symSize: 0x60 }
  - { offsetInCU: 0x6D1F, offset: 0x6D1F, size: 0x8, addend: 0x0, symName: __ZNSt3__121__libcpp_operator_newB7v160006IJmSt11align_val_tEEEPvDpT_, symObjAddr: 0x27B8, symBinAddr: 0x100005410, symSize: 0x2C }
  - { offsetInCU: 0x6D6C, offset: 0x6D6C, size: 0x8, addend: 0x0, symName: __ZNSt3__121__libcpp_operator_newB7v160006IJmEEEPvDpT_, symObjAddr: 0x27E4, symBinAddr: 0x10000543C, symSize: 0x24 }
  - { offsetInCU: 0x6DD8, offset: 0x6DD8, size: 0x8, addend: 0x0, symName: __ZNSt3__14copyB7v160006IPKcPcEET0_T_S5_S4_, symObjAddr: 0x28E8, symBinAddr: 0x100005540, symSize: 0x40 }
  - { offsetInCU: 0x6E32, offset: 0x6E32, size: 0x8, addend: 0x0, symName: __ZNSt3__16__copyB7v160006INS_17_ClassicAlgPolicyEPKcS3_PcEENS_4pairIT0_T2_EES6_T1_S7_, symObjAddr: 0x2928, symBinAddr: 0x100005580, symSize: 0x44 }
  - { offsetInCU: 0x6E9E, offset: 0x6E9E, size: 0x8, addend: 0x0, symName: __ZNSt3__123__dispatch_copy_or_moveB7v160006INS_17_ClassicAlgPolicyENS_11__copy_loopIS1_EENS_14__copy_trivialEPKcS6_PcEENS_4pairIT2_T4_EES9_T3_SA_, symObjAddr: 0x296C, symBinAddr: 0x1000055C4, symSize: 0x44 }
  - { offsetInCU: 0x6F1C, offset: 0x6F1C, size: 0x8, addend: 0x0, symName: __ZNSt3__121__unwrap_and_dispatchB7v160006INS_10__overloadINS_11__copy_loopINS_17_ClassicAlgPolicyEEENS_14__copy_trivialEEEPKcS8_PcLi0EEENS_4pairIT0_T2_EESB_T1_SC_, symObjAddr: 0x29B0, symBinAddr: 0x100005608, symSize: 0xB4 }
  - { offsetInCU: 0x6FAA, offset: 0x6FAA, size: 0x8, addend: 0x0, symName: __ZNSt3__114__unwrap_rangeB7v160006IPKcS2_EENS_4pairIT0_S4_EET_S6_, symObjAddr: 0x2A64, symBinAddr: 0x1000056BC, symSize: 0x60 }
  - { offsetInCU: 0x713F, offset: 0x713F, size: 0x8, addend: 0x0, symName: __ZNSt3__113__unwrap_iterB7v160006IPcNS_18__unwrap_iter_implIS1_Lb1EEELi0EEEDTclsrT0_8__unwrapclsr3stdE7declvalIT_EEEES5_, symObjAddr: 0x2B0C, symBinAddr: 0x100005764, symSize: 0x24 }
  - { offsetInCU: 0x7183, offset: 0x7183, size: 0x8, addend: 0x0, symName: __ZNSt3__19make_pairB7v160006IPKcPcEENS_4pairINS_18__unwrap_ref_decayIT_E4typeENS5_IT0_E4typeEEEOS6_OS9_, symObjAddr: 0x2B30, symBinAddr: 0x100005788, symSize: 0x38 }
  - { offsetInCU: 0x71D2, offset: 0x71D2, size: 0x8, addend: 0x0, symName: __ZNSt3__114__rewrap_rangeB7v160006IPKcS2_EET_S3_T0_, symObjAddr: 0x2B68, symBinAddr: 0x1000057C0, symSize: 0x2C }
  - { offsetInCU: 0x721E, offset: 0x721E, size: 0x8, addend: 0x0, symName: __ZNSt3__113__rewrap_iterB7v160006IPcS1_NS_18__unwrap_iter_implIS1_Lb1EEEEET_S4_T0_, symObjAddr: 0x2B94, symBinAddr: 0x1000057EC, symSize: 0x3C }
  - { offsetInCU: 0x7273, offset: 0x7273, size: 0x8, addend: 0x0, symName: __ZNSt3__19make_pairB7v160006IPKcS2_EENS_4pairINS_18__unwrap_ref_decayIT_E4typeENS4_IT0_E4typeEEEOS5_OS8_, symObjAddr: 0x2BD0, symBinAddr: 0x100005828, symSize: 0x38 }
  - { offsetInCU: 0x72C2, offset: 0x72C2, size: 0x8, addend: 0x0, symName: __ZNSt3__113__unwrap_iterB7v160006IPKcNS_18__unwrap_iter_implIS2_Lb1EEELi0EEEDTclsrT0_8__unwrapclsr3stdE7declvalIT_EEEES6_, symObjAddr: 0x2C08, symBinAddr: 0x100005860, symSize: 0x24 }
  - { offsetInCU: 0x742D, offset: 0x742D, size: 0x8, addend: 0x0, symName: __ZNSt3__112__to_addressB7v160006IKcEEPT_S3_, symObjAddr: 0x2CC0, symBinAddr: 0x100005918, symSize: 0x14 }
  - { offsetInCU: 0x7462, offset: 0x7462, size: 0x8, addend: 0x0, symName: __ZNSt3__119__copy_trivial_implB7v160006IKccEENS_4pairIPT_PT0_EES4_S4_S6_, symObjAddr: 0x2CD4, symBinAddr: 0x10000592C, symSize: 0x7C }
  - { offsetInCU: 0x74CA, offset: 0x74CA, size: 0x8, addend: 0x0, symName: __ZNSt3__19make_pairB7v160006IRPKcPcEENS_4pairINS_18__unwrap_ref_decayIT_E4typeENS6_IT0_E4typeEEEOS7_OSA_, symObjAddr: 0x2D50, symBinAddr: 0x1000059A8, symSize: 0x38 }
  - { offsetInCU: 0x756C, offset: 0x756C, size: 0x8, addend: 0x0, symName: __ZNSt3__113__rewrap_iterB7v160006IPKcS2_NS_18__unwrap_iter_implIS2_Lb1EEEEET_S5_T0_, symObjAddr: 0x2E8C, symBinAddr: 0x100005AE4, symSize: 0x3C }
  - { offsetInCU: 0x75F4, offset: 0x75F4, size: 0x8, addend: 0x0, symName: __ZNSt3__16fill_nB7v160006IPcmcEET_S2_T0_RKT1_, symObjAddr: 0x3010, symBinAddr: 0x100005C68, symSize: 0x44 }
  - { offsetInCU: 0x7657, offset: 0x7657, size: 0x8, addend: 0x0, symName: __ZNSt3__18__fill_nB7v160006IPcmcEET_S2_T0_RKT1_, symObjAddr: 0x3054, symBinAddr: 0x100005CAC, symSize: 0x64 }
  - { offsetInCU: 0x76BA, offset: 0x76BA, size: 0x8, addend: 0x0, symName: __ZNSt3__121__convert_to_integralB7v160006Em, symObjAddr: 0x30B8, symBinAddr: 0x100005D10, symSize: 0x14 }
  - { offsetInCU: 0x76E6, offset: 0x76E6, size: 0x8, addend: 0x0, symName: __ZNSt3__118__debug_db_erase_cB7v160006INS_6vectorIN4sdds7OpFlagsENS_9allocatorIS3_EEEEEEvPT_, symObjAddr: 0x334C, symBinAddr: 0x100005FA4, symSize: 0x10 }
  - { offsetInCU: 0x7717, offset: 0x7717, size: 0x8, addend: 0x0, symName: __ZNSt3__112__to_addressB7v160006IN4sdds7OpFlagsEEEPT_S4_, symObjAddr: 0x3490, symBinAddr: 0x1000060E8, symSize: 0x14 }
  - { offsetInCU: 0x774C, offset: 0x774C, size: 0x8, addend: 0x0, symName: __ZNSt3__119__debug_db_insert_cB7v160006INS_6vectorIN4sdds7OpFlagsENS_9allocatorIS3_EEEEEEvPT_, symObjAddr: 0x36DC, symBinAddr: 0x100006334, symSize: 0x10 }
  - { offsetInCU: 0x777D, offset: 0x777D, size: 0x8, addend: 0x0, symName: __ZNSt3__13maxB7v160006ImEERKT_S3_S3_, symObjAddr: 0x3D5C, symBinAddr: 0x1000069B4, symSize: 0x2C }
  - { offsetInCU: 0x77C0, offset: 0x77C0, size: 0x8, addend: 0x0, symName: __ZNSt3__13minB7v160006ImEERKT_S3_S3_, symObjAddr: 0x3D88, symBinAddr: 0x1000069E0, symSize: 0x2C }
  - { offsetInCU: 0x79ED, offset: 0x79ED, size: 0x8, addend: 0x0, symName: __ZNSt3__13minB7v160006ImNS_6__lessImmEEEERKT_S5_S5_T0_, symObjAddr: 0x3E14, symBinAddr: 0x100006A6C, symSize: 0x54 }
  - { offsetInCU: 0x7A82, offset: 0x7A82, size: 0x8, addend: 0x0, symName: __ZNSt3__13maxB7v160006ImNS_6__lessImmEEEERKT_S5_S5_T0_, symObjAddr: 0x3EF0, symBinAddr: 0x100006B48, symSize: 0x54 }
  - { offsetInCU: 0x7ADC, offset: 0x7ADC, size: 0x8, addend: 0x0, symName: __ZNSt3__119__allocate_at_leastB7v160006INS_9allocatorIPN4sdds8ResourceEEEEENS_19__allocation_resultINS_16allocator_traitsIT_E7pointerEEERS8_m, symObjAddr: 0x4054, symBinAddr: 0x100006CAC, symSize: 0x40 }
  - { offsetInCU: 0x7B1F, offset: 0x7B1F, size: 0x8, addend: 0x0, symName: __ZNSt3__142__uninitialized_allocator_move_if_noexceptB7v160006INS_9allocatorIPN4sdds8ResourceEEENS_16reverse_iteratorIPS4_EES8_S4_vEET1_RT_T0_SC_S9_, symObjAddr: 0x4208, symBinAddr: 0x100006E60, symSize: 0x78 }
  - { offsetInCU: 0x7B9C, offset: 0x7B9C, size: 0x8, addend: 0x0, symName: __ZNSt3__14swapB7v160006IPPN4sdds8ResourceEEENS_9enable_ifIXaasr21is_move_constructibleIT_EE5valuesr18is_move_assignableIS6_EE5valueEvE4typeERS6_S9_, symObjAddr: 0x42CC, symBinAddr: 0x100006F24, symSize: 0x3C }
  - { offsetInCU: 0x7BED, offset: 0x7BED, size: 0x8, addend: 0x0, symName: __ZNSt3__125__debug_db_invalidate_allB7v160006INS_6vectorIPN4sdds8ResourceENS_9allocatorIS4_EEEEEEvPT_, symObjAddr: 0x43B4, symBinAddr: 0x10000700C, symSize: 0x10 }
  - { offsetInCU: 0x7C1E, offset: 0x7C1E, size: 0x8, addend: 0x0, symName: __ZNSt3__14moveB7v160006INS_16reverse_iteratorIPPN4sdds8ResourceEEES6_EET0_T_S8_S7_, symObjAddr: 0x43C4, symBinAddr: 0x10000701C, symSize: 0x78 }
  - { offsetInCU: 0x7C78, offset: 0x7C78, size: 0x8, addend: 0x0, symName: __ZNSt3__16__moveB7v160006INS_17_ClassicAlgPolicyENS_16reverse_iteratorIPPN4sdds8ResourceEEES7_S7_EENS_4pairIT0_T2_EES9_T1_SA_, symObjAddr: 0x443C, symBinAddr: 0x100007094, symSize: 0x64 }
  - { offsetInCU: 0x7CE4, offset: 0x7CE4, size: 0x8, addend: 0x0, symName: __ZNSt3__123__dispatch_copy_or_moveB7v160006INS_17_ClassicAlgPolicyENS_11__move_loopIS1_EENS_14__move_trivialENS_16reverse_iteratorIPPN4sdds8ResourceEEESA_SA_EENS_4pairIT2_T4_EESC_T3_SD_, symObjAddr: 0x44A0, symBinAddr: 0x1000070F8, symSize: 0x64 }
  - { offsetInCU: 0x7D62, offset: 0x7D62, size: 0x8, addend: 0x0, symName: __ZNSt3__121__unwrap_and_dispatchB7v160006INS_10__overloadINS_11__move_loopINS_17_ClassicAlgPolicyEEENS_14__move_trivialEEENS_16reverse_iteratorIPPN4sdds8ResourceEEESC_SC_Li0EEENS_4pairIT0_T2_EESE_T1_SF_, symObjAddr: 0x4504, symBinAddr: 0x10000715C, symSize: 0x12C }
  - { offsetInCU: 0x7DF2, offset: 0x7DF2, size: 0x8, addend: 0x0, symName: __ZNSt3__114__unwrap_rangeB7v160006INS_16reverse_iteratorIPPN4sdds8ResourceEEES6_EENS_4pairIT0_S8_EET_SA_, symObjAddr: 0x4630, symBinAddr: 0x100007288, symSize: 0x84 }
  - { offsetInCU: 0x7F6D, offset: 0x7F6D, size: 0x8, addend: 0x0, symName: __ZNSt3__113__unwrap_iterB7v160006INS_16reverse_iteratorIPPN4sdds8ResourceEEENS_18__unwrap_iter_implIS6_Lb0EEELi0EEEDTclsrT0_8__unwrapclsr3stdE7declvalIT_EEEESA_, symObjAddr: 0x4754, symBinAddr: 0x1000073AC, symSize: 0x44 }
  - { offsetInCU: 0x7FB1, offset: 0x7FB1, size: 0x8, addend: 0x0, symName: __ZNSt3__19make_pairB7v160006INS_16reverse_iteratorIPPN4sdds8ResourceEEES6_EENS_4pairINS_18__unwrap_ref_decayIT_E4typeENS8_IT0_E4typeEEEOS9_OSC_, symObjAddr: 0x4798, symBinAddr: 0x1000073F0, symSize: 0x38 }
  - { offsetInCU: 0x8000, offset: 0x8000, size: 0x8, addend: 0x0, symName: __ZNSt3__114__rewrap_rangeB7v160006INS_16reverse_iteratorIPPN4sdds8ResourceEEES6_EET_S7_T0_, symObjAddr: 0x47D0, symBinAddr: 0x100007428, symSize: 0x5C }
  - { offsetInCU: 0x804C, offset: 0x804C, size: 0x8, addend: 0x0, symName: __ZNSt3__113__rewrap_iterB7v160006INS_16reverse_iteratorIPPN4sdds8ResourceEEES6_NS_18__unwrap_iter_implIS6_Lb0EEEEET_S9_T0_, symObjAddr: 0x482C, symBinAddr: 0x100007484, symSize: 0x74 }
  - { offsetInCU: 0x80A1, offset: 0x80A1, size: 0x8, addend: 0x0, symName: __ZNSt3__1neB7v160006IPPN4sdds8ResourceES4_EEbRKNS_16reverse_iteratorIT_EERKNS5_IT0_EE, symObjAddr: 0x48A0, symBinAddr: 0x1000074F8, symSize: 0x48 }
  - { offsetInCU: 0x819F, offset: 0x819F, size: 0x8, addend: 0x0, symName: __ZNSt3__118__constexpr_memcmpB7v160006IcEEiPKT_S3_m, symObjAddr: 0x4C9C, symBinAddr: 0x1000078F4, symSize: 0x34 }
  - { offsetInCU: 0x84E9, offset: 0x84E9, size: 0x8, addend: 0x0, symName: __ZSt28__throw_bad_array_new_lengthB7v160006v, symObjAddr: 0x2724, symBinAddr: 0x10000537C, symSize: 0x34 }
  - { offsetInCU: 0x8A0C, offset: 0x8A0C, size: 0x8, addend: 0x0, symName: __ZNSt3__16vectorIPN4sdds8ResourceENS_9allocatorIS3_EEE26__swap_out_circular_bufferERNS_14__split_bufferIS3_RS5_EE, symObjAddr: 0x3B9C, symBinAddr: 0x1000067F4, symSize: 0x118 }
  - { offsetInCU: 0xABB4, offset: 0xABB4, size: 0x8, addend: 0x0, symName: __ZN4sdds9DirectoryC2ERKNSt3__112basic_stringIcNS1_11char_traitsIcEENS1_9allocatorIcEEEE, symObjAddr: 0x0, symBinAddr: 0x100002C58, symSize: 0x98 }
  - { offsetInCU: 0xABEC, offset: 0xABEC, size: 0x8, addend: 0x0, symName: __ZN4sdds8ResourceC2Ev, symObjAddr: 0x98, symBinAddr: 0x100002CF0, symSize: 0x80 }
  - { offsetInCU: 0xAC17, offset: 0xAC17, size: 0x8, addend: 0x0, symName: __ZNSt3__16vectorIPN4sdds8ResourceENS_9allocatorIS3_EEEC1B7v160006Ev, symObjAddr: 0x118, symBinAddr: 0x100002D70, symSize: 0x2C }
  - { offsetInCU: 0xAC3F, offset: 0xAC3F, size: 0x8, addend: 0x0, symName: __ZNSt3__16vectorIPN4sdds8ResourceENS_9allocatorIS3_EEED1B7v160006Ev, symObjAddr: 0x144, symBinAddr: 0x100002D9C, symSize: 0x2C }
  - { offsetInCU: 0xAC67, offset: 0xAC67, size: 0x8, addend: 0x0, symName: __ZN4sdds8ResourceD2Ev, symObjAddr: 0x170, symBinAddr: 0x100002DC8, symSize: 0x4C }
  - { offsetInCU: 0xAC8E, offset: 0xAC8E, size: 0x8, addend: 0x0, symName: __ZN4sdds9DirectoryC1ERKNSt3__112basic_stringIcNS1_11char_traitsIcEENS1_9allocatorIcEEEE, symObjAddr: 0x1BC, symBinAddr: 0x100002E14, symSize: 0x34 }
  - { offsetInCU: 0xACC6, offset: 0xACC6, size: 0x8, addend: 0x0, symName: __ZN4sdds9DirectoryD2Ev, symObjAddr: 0x1F0, symBinAddr: 0x100002E48, symSize: 0xD8 }
  - { offsetInCU: 0xAD3E, offset: 0xAD3E, size: 0x8, addend: 0x0, symName: __ZNSt3__16vectorIPN4sdds8ResourceENS_9allocatorIS3_EEE5beginB7v160006Ev, symObjAddr: 0x2C8, symBinAddr: 0x100002F20, symSize: 0x30 }
  - { offsetInCU: 0xAD64, offset: 0xAD64, size: 0x8, addend: 0x0, symName: __ZNSt3__16vectorIPN4sdds8ResourceENS_9allocatorIS3_EEE3endB7v160006Ev, symObjAddr: 0x2F8, symBinAddr: 0x100002F50, symSize: 0x30 }
  - { offsetInCU: 0xAD8B, offset: 0xAD8B, size: 0x8, addend: 0x0, symName: __ZNKSt3__111__wrap_iterIPPN4sdds8ResourceEEdeB7v160006Ev, symObjAddr: 0x35C, symBinAddr: 0x100002FB4, symSize: 0x18 }
  - { offsetInCU: 0xADB0, offset: 0xADB0, size: 0x8, addend: 0x0, symName: __ZNSt3__111__wrap_iterIPPN4sdds8ResourceEEppB7v160006Ev, symObjAddr: 0x374, symBinAddr: 0x100002FCC, symSize: 0x20 }
  - { offsetInCU: 0xADD4, offset: 0xADD4, size: 0x8, addend: 0x0, symName: __ZN4sdds9DirectoryD1Ev, symObjAddr: 0x394, symBinAddr: 0x100002FEC, symSize: 0x2C }
  - { offsetInCU: 0xADFE, offset: 0xADFE, size: 0x8, addend: 0x0, symName: __ZN4sdds9DirectoryD0Ev, symObjAddr: 0x3C0, symBinAddr: 0x100003018, symSize: 0x30 }
  - { offsetInCU: 0xAE29, offset: 0xAE29, size: 0x8, addend: 0x0, symName: __ZN4sdds9Directory18update_parent_pathERKNSt3__112basic_stringIcNS1_11char_traitsIcEENS1_9allocatorIcEEEE, symObjAddr: 0x3F0, symBinAddr: 0x100003048, symSize: 0xF4 }
  - { offsetInCU: 0xAE9E, offset: 0xAE9E, size: 0x8, addend: 0x0, symName: __ZNK4sdds9Directory4typeEv, symObjAddr: 0x4E4, symBinAddr: 0x10000313C, symSize: 0x14 }
  - { offsetInCU: 0xAEC5, offset: 0xAEC5, size: 0x8, addend: 0x0, symName: __ZNK4sdds9Directory4pathEv, symObjAddr: 0x4F8, symBinAddr: 0x100003150, symSize: 0x7C }
  - { offsetInCU: 0xAEEC, offset: 0xAEEC, size: 0x8, addend: 0x0, symName: __ZNK4sdds9Directory4nameEv, symObjAddr: 0x754, symBinAddr: 0x1000033AC, symSize: 0x3C }
  - { offsetInCU: 0xAF13, offset: 0xAF13, size: 0x8, addend: 0x0, symName: __ZNK4sdds9Directory5countEv, symObjAddr: 0x790, symBinAddr: 0x1000033E8, symSize: 0x28 }
  - { offsetInCU: 0xAF3A, offset: 0xAF3A, size: 0x8, addend: 0x0, symName: __ZNKSt3__16vectorIPN4sdds8ResourceENS_9allocatorIS3_EEE4sizeB7v160006Ev, symObjAddr: 0x7B8, symBinAddr: 0x100003410, symSize: 0x28 }
  - { offsetInCU: 0xAF5F, offset: 0xAF5F, size: 0x8, addend: 0x0, symName: __ZNK4sdds9Directory4sizeEv, symObjAddr: 0x7E0, symBinAddr: 0x100003438, symSize: 0x9C }
  - { offsetInCU: 0xAFE1, offset: 0xAFE1, size: 0x8, addend: 0x0, symName: __ZNKSt3__16vectorIPN4sdds8ResourceENS_9allocatorIS3_EEE5beginB7v160006Ev, symObjAddr: 0x87C, symBinAddr: 0x1000034D4, symSize: 0x30 }
  - { offsetInCU: 0xB007, offset: 0xB007, size: 0x8, addend: 0x0, symName: __ZNKSt3__16vectorIPN4sdds8ResourceENS_9allocatorIS3_EEE3endB7v160006Ev, symObjAddr: 0x8AC, symBinAddr: 0x100003504, symSize: 0x30 }
  - { offsetInCU: 0xB02E, offset: 0xB02E, size: 0x8, addend: 0x0, symName: __ZNKSt3__111__wrap_iterIPKPN4sdds8ResourceEEdeB7v160006Ev, symObjAddr: 0x910, symBinAddr: 0x100003568, symSize: 0x18 }
  - { offsetInCU: 0xB053, offset: 0xB053, size: 0x8, addend: 0x0, symName: __ZNSt3__111__wrap_iterIPKPN4sdds8ResourceEEppB7v160006Ev, symObjAddr: 0x928, symBinAddr: 0x100003580, symSize: 0x20 }
  - { offsetInCU: 0xB078, offset: 0xB078, size: 0x8, addend: 0x0, symName: __ZN4sdds9DirectorypLEPNS_8ResourceE, symObjAddr: 0x948, symBinAddr: 0x1000035A0, symSize: 0x174 }
  - { offsetInCU: 0xB0BB, offset: 0xB0BB, size: 0x8, addend: 0x0, symName: __ZN4sdds9Directory4findERKNSt3__112basic_stringIcNS1_11char_traitsIcEENS1_9allocatorIcEEEERKNS1_6vectorINS_7OpFlagsENS5_ISB_EEEE, symObjAddr: 0xABC, symBinAddr: 0x100003714, symSize: 0x238 }
  - { offsetInCU: 0xB1BA, offset: 0xB1BA, size: 0x8, addend: 0x0, symName: __ZNSt3__16vectorIN4sdds7OpFlagsENS_9allocatorIS2_EEEC1B7v160006Ev, symObjAddr: 0xCF4, symBinAddr: 0x10000394C, symSize: 0x2C }
  - { offsetInCU: 0xB1E2, offset: 0xB1E2, size: 0x8, addend: 0x0, symName: __ZNSt3__16vectorIN4sdds7OpFlagsENS_9allocatorIS2_EEED1B7v160006Ev, symObjAddr: 0xD20, symBinAddr: 0x100003978, symSize: 0x2C }
  - { offsetInCU: 0xB209, offset: 0xB209, size: 0x8, addend: 0x0, symName: __ZNSt3__16vectorIPN4sdds8ResourceENS_9allocatorIS3_EEE9push_backB7v160006ERKS3_, symObjAddr: 0xD4C, symBinAddr: 0x1000039A4, symSize: 0x6C }
  - { offsetInCU: 0xB23E, offset: 0xB23E, size: 0x8, addend: 0x0, symName: __ZNKSt3__16vectorIN4sdds7OpFlagsENS_9allocatorIS2_EEE5beginB7v160006Ev, symObjAddr: 0xFB4, symBinAddr: 0x100003C0C, symSize: 0x30 }
  - { offsetInCU: 0xB264, offset: 0xB264, size: 0x8, addend: 0x0, symName: __ZNKSt3__16vectorIN4sdds7OpFlagsENS_9allocatorIS2_EEE3endB7v160006Ev, symObjAddr: 0xFE4, symBinAddr: 0x100003C3C, symSize: 0x30 }
  - { offsetInCU: 0xB28B, offset: 0xB28B, size: 0x8, addend: 0x0, symName: __ZNK4sdds9Directory13findRecursiveERKNSt3__112basic_stringIcNS1_11char_traitsIcEENS1_9allocatorIcEEEERKNS1_6vectorINS_7OpFlagsENS5_ISB_EEEE, symObjAddr: 0x1014, symBinAddr: 0x100003C6C, symSize: 0x154 }
  - { offsetInCU: 0xB32B, offset: 0xB32B, size: 0x8, addend: 0x0, symName: __ZNSt3__112basic_stringIcNS_11char_traitsIcEENS_9allocatorIcEEEC1B7v160006Ev, symObjAddr: 0x1168, symBinAddr: 0x100003DC0, symSize: 0x2C }
  - { offsetInCU: 0xB358, offset: 0xB358, size: 0x8, addend: 0x0, symName: __ZNSt3__112basic_stringIcNS_11char_traitsIcEENS_9allocatorIcEEEC1B7v160006IDnEEPKc, symObjAddr: 0x1194, symBinAddr: 0x100003DEC, symSize: 0x34 }
  - { offsetInCU: 0xB394, offset: 0xB394, size: 0x8, addend: 0x0, symName: __ZN4sdds8ResourceD1Ev, symObjAddr: 0x11C8, symBinAddr: 0x100003E20, symSize: 0x14 }
  - { offsetInCU: 0xB3BD, offset: 0xB3BD, size: 0x8, addend: 0x0, symName: __ZN4sdds8ResourceD0Ev, symObjAddr: 0x11DC, symBinAddr: 0x100003E34, symSize: 0xC }
  - { offsetInCU: 0xB3E6, offset: 0xB3E6, size: 0x8, addend: 0x0, symName: __ZNSt3__112basic_stringIcNS_11char_traitsIcEENS_9allocatorIcEEEC2B7v160006Ev, symObjAddr: 0x11E8, symBinAddr: 0x100003E40, symSize: 0x54 }
  - { offsetInCU: 0xB413, offset: 0xB413, size: 0x8, addend: 0x0, symName: __ZNSt3__117__compressed_pairINS_12basic_stringIcNS_11char_traitsIcEENS_9allocatorIcEEE5__repES5_EC1B7v160006INS_18__default_init_tagESA_EEOT_OT0_, symObjAddr: 0x123C, symBinAddr: 0x100003E94, symSize: 0x3C }
  - { offsetInCU: 0xB469, offset: 0xB469, size: 0x8, addend: 0x0, symName: __ZNSt3__112basic_stringIcNS_11char_traitsIcEENS_9allocatorIcEEE14__default_initB7v160006Ev, symObjAddr: 0x1294, symBinAddr: 0x100003EEC, symSize: 0x40 }
  - { offsetInCU: 0xB48E, offset: 0xB48E, size: 0x8, addend: 0x0, symName: __ZNSt3__117__compressed_pairINS_12basic_stringIcNS_11char_traitsIcEENS_9allocatorIcEEE5__repES5_EC2B7v160006INS_18__default_init_tagESA_EEOT_OT0_, symObjAddr: 0x12D4, symBinAddr: 0x100003F2C, symSize: 0x3C }
  - { offsetInCU: 0xB4E4, offset: 0xB4E4, size: 0x8, addend: 0x0, symName: __ZNSt3__122__compressed_pair_elemINS_12basic_stringIcNS_11char_traitsIcEENS_9allocatorIcEEE5__repELi0ELb0EEC2B7v160006ENS_18__default_init_tagE, symObjAddr: 0x1310, symBinAddr: 0x100003F68, symSize: 0x14 }
  - { offsetInCU: 0xB518, offset: 0xB518, size: 0x8, addend: 0x0, symName: __ZNSt3__122__compressed_pair_elemINS_9allocatorIcEELi1ELb1EEC2B7v160006ENS_18__default_init_tagE, symObjAddr: 0x1324, symBinAddr: 0x100003F7C, symSize: 0x2C }
  - { offsetInCU: 0xB54B, offset: 0xB54B, size: 0x8, addend: 0x0, symName: __ZNSt3__19allocatorIcEC2B7v160006Ev, symObjAddr: 0x1350, symBinAddr: 0x100003FA8, symSize: 0x2C }
  - { offsetInCU: 0xB573, offset: 0xB573, size: 0x8, addend: 0x0, symName: __ZNSt3__116__non_trivial_ifILb1ENS_9allocatorIcEEEC2B7v160006Ev, symObjAddr: 0x137C, symBinAddr: 0x100003FD4, symSize: 0x14 }
  - { offsetInCU: 0xB59C, offset: 0xB59C, size: 0x8, addend: 0x0, symName: __ZNSt3__117__compressed_pairINS_12basic_stringIcNS_11char_traitsIcEENS_9allocatorIcEEE5__repES5_E5firstB7v160006Ev, symObjAddr: 0x1390, symBinAddr: 0x100003FE8, symSize: 0x24 }
  - { offsetInCU: 0xB5C1, offset: 0xB5C1, size: 0x8, addend: 0x0, symName: __ZNSt3__122__compressed_pair_elemINS_12basic_stringIcNS_11char_traitsIcEENS_9allocatorIcEEE5__repELi0ELb0EE5__getB7v160006Ev, symObjAddr: 0x13B4, symBinAddr: 0x10000400C, symSize: 0x14 }
  - { offsetInCU: 0xB5E6, offset: 0xB5E6, size: 0x8, addend: 0x0, symName: __ZNSt3__112basic_stringIcNS_11char_traitsIcEENS_9allocatorIcEEEC2B7v160006IDnEEPKc, symObjAddr: 0x13C8, symBinAddr: 0x100004020, symSize: 0x60 }
  - { offsetInCU: 0xB622, offset: 0xB622, size: 0x8, addend: 0x0, symName: __ZNSt3__111char_traitsIcE6lengthEPKc, symObjAddr: 0x1428, symBinAddr: 0x100004080, symSize: 0x34 }
  - { offsetInCU: 0xB645, offset: 0xB645, size: 0x8, addend: 0x0, symName: __ZNKSt3__111__wrap_iterIPPN4sdds8ResourceEE4baseB7v160006Ev, symObjAddr: 0x14C8, symBinAddr: 0x100004120, symSize: 0x18 }
  - { offsetInCU: 0xB66A, offset: 0xB66A, size: 0x8, addend: 0x0, symName: __ZNKSt3__111__wrap_iterIPKPN4sdds8ResourceEE4baseB7v160006Ev, symObjAddr: 0x1528, symBinAddr: 0x100004180, symSize: 0x18 }
  - { offsetInCU: 0xB68F, offset: 0xB68F, size: 0x8, addend: 0x0, symName: __ZNKSt3__111__wrap_iterIPKN4sdds7OpFlagsEE4baseB7v160006Ev, symObjAddr: 0x1588, symBinAddr: 0x1000041E0, symSize: 0x18 }
  - { offsetInCU: 0xB6B4, offset: 0xB6B4, size: 0x8, addend: 0x0, symName: __ZNSt3__16vectorIPN4sdds8ResourceENS_9allocatorIS3_EEEC2B7v160006Ev, symObjAddr: 0x15A0, symBinAddr: 0x1000041F8, symSize: 0x58 }
  - { offsetInCU: 0xB6E1, offset: 0xB6E1, size: 0x8, addend: 0x0, symName: __ZNSt3__117__compressed_pairIPPN4sdds8ResourceENS_9allocatorIS3_EEEC1B7v160006IDnNS_18__default_init_tagEEEOT_OT0_, symObjAddr: 0x15F8, symBinAddr: 0x100004250, symSize: 0x3C }
  - { offsetInCU: 0xB737, offset: 0xB737, size: 0x8, addend: 0x0, symName: __ZNSt3__117__compressed_pairIPPN4sdds8ResourceENS_9allocatorIS3_EEEC2B7v160006IDnNS_18__default_init_tagEEEOT_OT0_, symObjAddr: 0x1644, symBinAddr: 0x10000429C, symSize: 0x40 }
  - { offsetInCU: 0xB78D, offset: 0xB78D, size: 0x8, addend: 0x0, symName: __ZNSt3__122__compressed_pair_elemIPPN4sdds8ResourceELi0ELb0EEC2B7v160006IDnvEEOT_, symObjAddr: 0x1684, symBinAddr: 0x1000042DC, symSize: 0x1C }
  - { offsetInCU: 0xB7CE, offset: 0xB7CE, size: 0x8, addend: 0x0, symName: __ZNSt3__122__compressed_pair_elemINS_9allocatorIPN4sdds8ResourceEEELi1ELb1EEC2B7v160006ENS_18__default_init_tagE, symObjAddr: 0x16A0, symBinAddr: 0x1000042F8, symSize: 0x2C }
  - { offsetInCU: 0xB801, offset: 0xB801, size: 0x8, addend: 0x0, symName: __ZNSt3__19allocatorIPN4sdds8ResourceEEC2B7v160006Ev, symObjAddr: 0x16CC, symBinAddr: 0x100004324, symSize: 0x2C }
  - { offsetInCU: 0xB829, offset: 0xB829, size: 0x8, addend: 0x0, symName: __ZNSt3__116__non_trivial_ifILb1ENS_9allocatorIPN4sdds8ResourceEEEEC2B7v160006Ev, symObjAddr: 0x16F8, symBinAddr: 0x100004350, symSize: 0x14 }
  - { offsetInCU: 0xB852, offset: 0xB852, size: 0x8, addend: 0x0, symName: __ZNSt3__16vectorIPN4sdds8ResourceENS_9allocatorIS3_EEED2B7v160006Ev, symObjAddr: 0x170C, symBinAddr: 0x100004364, symSize: 0x44 }
  - { offsetInCU: 0xB87A, offset: 0xB87A, size: 0x8, addend: 0x0, symName: __ZNSt3__16vectorIPN4sdds8ResourceENS_9allocatorIS3_EEE16__destroy_vectorC1ERS6_, symObjAddr: 0x1750, symBinAddr: 0x1000043A8, symSize: 0x34 }
  - { offsetInCU: 0xB8B1, offset: 0xB8B1, size: 0x8, addend: 0x0, symName: __ZNSt3__16vectorIPN4sdds8ResourceENS_9allocatorIS3_EEE16__destroy_vectorclB7v160006Ev, symObjAddr: 0x1784, symBinAddr: 0x1000043DC, symSize: 0x9C }
  - { offsetInCU: 0xB8D6, offset: 0xB8D6, size: 0x8, addend: 0x0, symName: __ZNSt3__16vectorIPN4sdds8ResourceENS_9allocatorIS3_EEE16__destroy_vectorC2ERS6_, symObjAddr: 0x1820, symBinAddr: 0x100004478, symSize: 0x20 }
  - { offsetInCU: 0xB90E, offset: 0xB90E, size: 0x8, addend: 0x0, symName: __ZNKSt3__16vectorIPN4sdds8ResourceENS_9allocatorIS3_EEE17__annotate_deleteB7v160006Ev, symObjAddr: 0x1840, symBinAddr: 0x100004498, symSize: 0xB8 }
  - { offsetInCU: 0xB933, offset: 0xB933, size: 0x8, addend: 0x0, symName: __ZNSt3__16vectorIPN4sdds8ResourceENS_9allocatorIS3_EEE7__clearB7v160006Ev, symObjAddr: 0x1908, symBinAddr: 0x100004560, symSize: 0x28 }
  - { offsetInCU: 0xB958, offset: 0xB958, size: 0x8, addend: 0x0, symName: __ZNSt3__116allocator_traitsINS_9allocatorIPN4sdds8ResourceEEEE10deallocateB7v160006ERS5_PS4_m, symObjAddr: 0x1930, symBinAddr: 0x100004588, symSize: 0x34 }
  - { offsetInCU: 0xB99A, offset: 0xB99A, size: 0x8, addend: 0x0, symName: __ZNSt3__16vectorIPN4sdds8ResourceENS_9allocatorIS3_EEE7__allocB7v160006Ev, symObjAddr: 0x1964, symBinAddr: 0x1000045BC, symSize: 0x28 }
  - { offsetInCU: 0xB9BF, offset: 0xB9BF, size: 0x8, addend: 0x0, symName: __ZNKSt3__16vectorIPN4sdds8ResourceENS_9allocatorIS3_EEE8capacityB7v160006Ev, symObjAddr: 0x198C, symBinAddr: 0x1000045E4, symSize: 0x40 }
  - { offsetInCU: 0xB9E4, offset: 0xB9E4, size: 0x8, addend: 0x0, symName: __ZNKSt3__16vectorIPN4sdds8ResourceENS_9allocatorIS3_EEE31__annotate_contiguous_containerB7v160006EPKvS8_S8_S8_, symObjAddr: 0x19CC, symBinAddr: 0x100004624, symSize: 0x20 }
  - { offsetInCU: 0xBA35, offset: 0xBA35, size: 0x8, addend: 0x0, symName: __ZNKSt3__16vectorIPN4sdds8ResourceENS_9allocatorIS3_EEE4dataB7v160006Ev, symObjAddr: 0x19EC, symBinAddr: 0x100004644, symSize: 0x28 }
  - { offsetInCU: 0xBA5A, offset: 0xBA5A, size: 0x8, addend: 0x0, symName: __ZNSt3__16vectorIPN4sdds8ResourceENS_9allocatorIS3_EEE22__base_destruct_at_endB7v160006EPS3_, symObjAddr: 0x1A28, symBinAddr: 0x100004680, symSize: 0x8C }
  - { offsetInCU: 0xBA9D, offset: 0xBA9D, size: 0x8, addend: 0x0, symName: __ZNSt3__116allocator_traitsINS_9allocatorIPN4sdds8ResourceEEEE7destroyB7v160006IS4_vEEvRS5_PT_, symObjAddr: 0x1AB4, symBinAddr: 0x10000470C, symSize: 0x2C }
  - { offsetInCU: 0xBADA, offset: 0xBADA, size: 0x8, addend: 0x0, symName: __ZNSt3__19allocatorIPN4sdds8ResourceEE7destroyB7v160006EPS3_, symObjAddr: 0x1AE0, symBinAddr: 0x100004738, symSize: 0x14 }
  - { offsetInCU: 0xBB0D, offset: 0xBB0D, size: 0x8, addend: 0x0, symName: __ZNSt3__19allocatorIPN4sdds8ResourceEE10deallocateB7v160006EPS3_m, symObjAddr: 0x1AF4, symBinAddr: 0x10000474C, symSize: 0x40 }
  - { offsetInCU: 0xBB4E, offset: 0xBB4E, size: 0x8, addend: 0x0, symName: __ZNSt3__117__compressed_pairIPPN4sdds8ResourceENS_9allocatorIS3_EEE6secondB7v160006Ev, symObjAddr: 0x1C5C, symBinAddr: 0x1000048B4, symSize: 0x24 }
  - { offsetInCU: 0xBB73, offset: 0xBB73, size: 0x8, addend: 0x0, symName: __ZNSt3__122__compressed_pair_elemINS_9allocatorIPN4sdds8ResourceEEELi1ELb1EE5__getB7v160006Ev, symObjAddr: 0x1C80, symBinAddr: 0x1000048D8, symSize: 0x14 }
  - { offsetInCU: 0xBB98, offset: 0xBB98, size: 0x8, addend: 0x0, symName: __ZNKSt3__16vectorIPN4sdds8ResourceENS_9allocatorIS3_EEE9__end_capB7v160006Ev, symObjAddr: 0x1C94, symBinAddr: 0x1000048EC, symSize: 0x28 }
  - { offsetInCU: 0xBBBD, offset: 0xBBBD, size: 0x8, addend: 0x0, symName: __ZNKSt3__117__compressed_pairIPPN4sdds8ResourceENS_9allocatorIS3_EEE5firstB7v160006Ev, symObjAddr: 0x1CBC, symBinAddr: 0x100004914, symSize: 0x24 }
  - { offsetInCU: 0xBBE2, offset: 0xBBE2, size: 0x8, addend: 0x0, symName: __ZNKSt3__122__compressed_pair_elemIPPN4sdds8ResourceELi0ELb0EE5__getB7v160006Ev, symObjAddr: 0x1CE0, symBinAddr: 0x100004938, symSize: 0x14 }
  - { offsetInCU: 0xBC07, offset: 0xBC07, size: 0x8, addend: 0x0, symName: __ZNSt3__16vectorIPN4sdds8ResourceENS_9allocatorIS3_EEE11__make_iterB7v160006EPS3_, symObjAddr: 0x1CF4, symBinAddr: 0x10000494C, symSize: 0x34 }
  - { offsetInCU: 0xBC3B, offset: 0xBC3B, size: 0x8, addend: 0x0, symName: __ZNSt3__111__wrap_iterIPPN4sdds8ResourceEEC1B7v160006EPKvS4_, symObjAddr: 0x1D28, symBinAddr: 0x100004980, symSize: 0x3C }
  - { offsetInCU: 0xBC7F, offset: 0xBC7F, size: 0x8, addend: 0x0, symName: __ZNSt3__111__wrap_iterIPPN4sdds8ResourceEEC2B7v160006EPKvS4_, symObjAddr: 0x1D64, symBinAddr: 0x1000049BC, symSize: 0x24 }
  - { offsetInCU: 0xBCC4, offset: 0xBCC4, size: 0x8, addend: 0x0, symName: __ZNKSt3__112basic_stringIcNS_11char_traitsIcEENS_9allocatorIcEEE4sizeB7v160006Ev, symObjAddr: 0x1D88, symBinAddr: 0x1000049E0, symSize: 0x54 }
  - { offsetInCU: 0xBCE9, offset: 0xBCE9, size: 0x8, addend: 0x0, symName: __ZNKSt3__112basic_stringIcNS_11char_traitsIcEENS_9allocatorIcEEE9__is_longB7v160006Ev, symObjAddr: 0x1DDC, symBinAddr: 0x100004A34, symSize: 0x38 }
  - { offsetInCU: 0xBD0E, offset: 0xBD0E, size: 0x8, addend: 0x0, symName: __ZNKSt3__112basic_stringIcNS_11char_traitsIcEENS_9allocatorIcEEE15__get_long_sizeB7v160006Ev, symObjAddr: 0x1E14, symBinAddr: 0x100004A6C, symSize: 0x28 }
  - { offsetInCU: 0xBD33, offset: 0xBD33, size: 0x8, addend: 0x0, symName: __ZNKSt3__112basic_stringIcNS_11char_traitsIcEENS_9allocatorIcEEE16__get_short_sizeB7v160006Ev, symObjAddr: 0x1E3C, symBinAddr: 0x100004A94, symSize: 0x34 }
  - { offsetInCU: 0xBD58, offset: 0xBD58, size: 0x8, addend: 0x0, symName: __ZNKSt3__117__compressed_pairINS_12basic_stringIcNS_11char_traitsIcEENS_9allocatorIcEEE5__repES5_E5firstB7v160006Ev, symObjAddr: 0x1E70, symBinAddr: 0x100004AC8, symSize: 0x24 }
  - { offsetInCU: 0xBD7D, offset: 0xBD7D, size: 0x8, addend: 0x0, symName: __ZNKSt3__122__compressed_pair_elemINS_12basic_stringIcNS_11char_traitsIcEENS_9allocatorIcEEE5__repELi0ELb0EE5__getB7v160006Ev, symObjAddr: 0x1E94, symBinAddr: 0x100004AEC, symSize: 0x14 }
  - { offsetInCU: 0xBDAC, offset: 0xBDAC, size: 0x8, addend: 0x0, symName: __ZNSt3__116allocator_traitsINS_9allocatorIcEEE37select_on_container_copy_constructionB7v160006IS2_vvEES2_RKS2_, symObjAddr: 0x1EA8, symBinAddr: 0x100004B00, symSize: 0x10 }
  - { offsetInCU: 0xBDDB, offset: 0xBDDB, size: 0x8, addend: 0x0, symName: __ZNKSt3__112basic_stringIcNS_11char_traitsIcEENS_9allocatorIcEEE13get_allocatorB7v160006Ev, symObjAddr: 0x1EB8, symBinAddr: 0x100004B10, symSize: 0x24 }
  - { offsetInCU: 0xBE00, offset: 0xBE00, size: 0x8, addend: 0x0, symName: __ZNSt3__112basic_stringIcNS_11char_traitsIcEENS_9allocatorIcEEEC1B7v160006ENS_24__uninitialized_size_tagEmRKS4_, symObjAddr: 0x1EDC, symBinAddr: 0x100004B34, symSize: 0x3C }
  - { offsetInCU: 0xBE51, offset: 0xBE51, size: 0x8, addend: 0x0, symName: __ZNSt3__112basic_stringIcNS_11char_traitsIcEENS_9allocatorIcEEE13__get_pointerB7v160006Ev, symObjAddr: 0x1F2C, symBinAddr: 0x100004B84, symSize: 0x54 }
  - { offsetInCU: 0xBE76, offset: 0xBE76, size: 0x8, addend: 0x0, symName: __ZNSt3__111char_traitsIcE4copyEPcPKcm, symObjAddr: 0x1F80, symBinAddr: 0x100004BD8, symSize: 0x5C }
  - { offsetInCU: 0xBEB5, offset: 0xBEB5, size: 0x8, addend: 0x0, symName: __ZNKSt3__112basic_stringIcNS_11char_traitsIcEENS_9allocatorIcEEE4dataB7v160006Ev, symObjAddr: 0x1FDC, symBinAddr: 0x100004C34, symSize: 0x28 }
  - { offsetInCU: 0xBEDA, offset: 0xBEDA, size: 0x8, addend: 0x0, symName: __ZNSt3__111char_traitsIcE6assignEPcmc, symObjAddr: 0x2004, symBinAddr: 0x100004C5C, symSize: 0x44 }
  - { offsetInCU: 0xBF19, offset: 0xBF19, size: 0x8, addend: 0x0, symName: __ZNKSt3__112basic_stringIcNS_11char_traitsIcEENS_9allocatorIcEEE7__allocB7v160006Ev, symObjAddr: 0x2048, symBinAddr: 0x100004CA0, symSize: 0x24 }
  - { offsetInCU: 0xBF3E, offset: 0xBF3E, size: 0x8, addend: 0x0, symName: __ZNKSt3__117__compressed_pairINS_12basic_stringIcNS_11char_traitsIcEENS_9allocatorIcEEE5__repES5_E6secondB7v160006Ev, symObjAddr: 0x206C, symBinAddr: 0x100004CC4, symSize: 0x24 }
  - { offsetInCU: 0xBF63, offset: 0xBF63, size: 0x8, addend: 0x0, symName: __ZNKSt3__122__compressed_pair_elemINS_9allocatorIcEELi1ELb1EE5__getB7v160006Ev, symObjAddr: 0x2090, symBinAddr: 0x100004CE8, symSize: 0x14 }
  - { offsetInCU: 0xBF88, offset: 0xBF88, size: 0x8, addend: 0x0, symName: __ZNSt3__112basic_stringIcNS_11char_traitsIcEENS_9allocatorIcEEEC2B7v160006ENS_24__uninitialized_size_tagEmRKS4_, symObjAddr: 0x20A4, symBinAddr: 0x100004CFC, symSize: 0x118 }
  - { offsetInCU: 0xC005, offset: 0xC005, size: 0x8, addend: 0x0, symName: __ZNSt3__117__compressed_pairINS_12basic_stringIcNS_11char_traitsIcEENS_9allocatorIcEEE5__repES5_EC1B7v160006INS_18__default_init_tagERKS5_EEOT_OT0_, symObjAddr: 0x21BC, symBinAddr: 0x100004E14, symSize: 0x3C }
  - { offsetInCU: 0xC05B, offset: 0xC05B, size: 0x8, addend: 0x0, symName: __ZNKSt3__112basic_stringIcNS_11char_traitsIcEENS_9allocatorIcEEE8max_sizeB7v160006Ev, symObjAddr: 0x21F8, symBinAddr: 0x100004E50, symSize: 0xAC }
  - { offsetInCU: 0xC0AC, offset: 0xC0AC, size: 0x8, addend: 0x0, symName: __ZNKSt3__112basic_stringIcNS_11char_traitsIcEENS_9allocatorIcEEE20__throw_length_errorB7v160006Ev, symObjAddr: 0x22A4, symBinAddr: 0x100004EFC, symSize: 0x1C }
  - { offsetInCU: 0xC0D1, offset: 0xC0D1, size: 0x8, addend: 0x0, symName: __ZNSt3__112basic_stringIcNS_11char_traitsIcEENS_9allocatorIcEEE13__fits_in_ssoB7v160006Em, symObjAddr: 0x22C0, symBinAddr: 0x100004F18, symSize: 0x20 }
  - { offsetInCU: 0xC0F5, offset: 0xC0F5, size: 0x8, addend: 0x0, symName: __ZNSt3__112basic_stringIcNS_11char_traitsIcEENS_9allocatorIcEEE16__set_short_sizeB7v160006Em, symObjAddr: 0x22E0, symBinAddr: 0x100004F38, symSize: 0x78 }
  - { offsetInCU: 0xC129, offset: 0xC129, size: 0x8, addend: 0x0, symName: __ZNSt3__112basic_stringIcNS_11char_traitsIcEENS_9allocatorIcEEE11__recommendB7v160006Em, symObjAddr: 0x2358, symBinAddr: 0x100004FB0, symSize: 0x84 }
  - { offsetInCU: 0xC15C, offset: 0xC15C, size: 0x8, addend: 0x0, symName: __ZNSt3__116allocator_traitsINS_9allocatorIcEEE8allocateB7v160006ERS2_m, symObjAddr: 0x23DC, symBinAddr: 0x100005034, symSize: 0x2C }
  - { offsetInCU: 0xC18F, offset: 0xC18F, size: 0x8, addend: 0x0, symName: __ZNSt3__112basic_stringIcNS_11char_traitsIcEENS_9allocatorIcEEE7__allocB7v160006Ev, symObjAddr: 0x2408, symBinAddr: 0x100005060, symSize: 0x24 }
  - { offsetInCU: 0xC1B4, offset: 0xC1B4, size: 0x8, addend: 0x0, symName: __ZNSt3__112basic_stringIcNS_11char_traitsIcEENS_9allocatorIcEEE16__begin_lifetimeB7v160006EPcm, symObjAddr: 0x242C, symBinAddr: 0x100005084, symSize: 0x14 }
  - { offsetInCU: 0xC1E7, offset: 0xC1E7, size: 0x8, addend: 0x0, symName: __ZNSt3__112basic_stringIcNS_11char_traitsIcEENS_9allocatorIcEEE14__set_long_capB7v160006Em, symObjAddr: 0x2440, symBinAddr: 0x100005098, symSize: 0x70 }
  - { offsetInCU: 0xC21B, offset: 0xC21B, size: 0x8, addend: 0x0, symName: __ZNSt3__112basic_stringIcNS_11char_traitsIcEENS_9allocatorIcEEE18__set_long_pointerB7v160006EPc, symObjAddr: 0x24B0, symBinAddr: 0x100005108, symSize: 0x38 }
  - { offsetInCU: 0xC24F, offset: 0xC24F, size: 0x8, addend: 0x0, symName: __ZNSt3__112basic_stringIcNS_11char_traitsIcEENS_9allocatorIcEEE15__set_long_sizeB7v160006Em, symObjAddr: 0x24E8, symBinAddr: 0x100005140, symSize: 0x38 }
  - { offsetInCU: 0xC283, offset: 0xC283, size: 0x8, addend: 0x0, symName: __ZNSt3__117__compressed_pairINS_12basic_stringIcNS_11char_traitsIcEENS_9allocatorIcEEE5__repES5_EC2B7v160006INS_18__default_init_tagERKS5_EEOT_OT0_, symObjAddr: 0x2520, symBinAddr: 0x100005178, symSize: 0x40 }
  - { offsetInCU: 0xC2D9, offset: 0xC2D9, size: 0x8, addend: 0x0, symName: __ZNSt3__122__compressed_pair_elemINS_9allocatorIcEELi1ELb1EEC2B7v160006IRKS2_vEEOT_, symObjAddr: 0x2560, symBinAddr: 0x1000051B8, symSize: 0x18 }
  - { offsetInCU: 0xC31A, offset: 0xC31A, size: 0x8, addend: 0x0, symName: __ZNSt3__116allocator_traitsINS_9allocatorIcEEE8max_sizeB7v160006IS2_vEEmRKS2_, symObjAddr: 0x2578, symBinAddr: 0x1000051D0, symSize: 0x24 }
  - { offsetInCU: 0xC348, offset: 0xC348, size: 0x8, addend: 0x0, symName: __ZNSt3__114numeric_limitsImE3maxB7v160006Ev, symObjAddr: 0x259C, symBinAddr: 0x1000051F4, symSize: 0x14 }
  - { offsetInCU: 0xC35C, offset: 0xC35C, size: 0x8, addend: 0x0, symName: __ZNKSt3__19allocatorIcE8max_sizeB7v160006Ev, symObjAddr: 0x25B0, symBinAddr: 0x100005208, symSize: 0x14 }
  - { offsetInCU: 0xC381, offset: 0xC381, size: 0x8, addend: 0x0, symName: __ZNSt3__123__libcpp_numeric_limitsImLb1EE3maxB7v160006Ev, symObjAddr: 0x25C4, symBinAddr: 0x10000521C, symSize: 0x8 }
  - { offsetInCU: 0xC395, offset: 0xC395, size: 0x8, addend: 0x0, symName: __ZNSt12length_errorC1B7v160006EPKc, symObjAddr: 0x2630, symBinAddr: 0x100005288, symSize: 0x34 }
  - { offsetInCU: 0xC3CB, offset: 0xC3CB, size: 0x8, addend: 0x0, symName: __ZNSt12length_errorC2B7v160006EPKc, symObjAddr: 0x2664, symBinAddr: 0x1000052BC, symSize: 0x4C }
  - { offsetInCU: 0xC401, offset: 0xC401, size: 0x8, addend: 0x0, symName: __ZNSt3__112basic_stringIcNS_11char_traitsIcEENS_9allocatorIcEEE10__align_itB7v160006ILm16EEEmm, symObjAddr: 0x26B0, symBinAddr: 0x100005308, symSize: 0x1C }
  - { offsetInCU: 0xC42F, offset: 0xC42F, size: 0x8, addend: 0x0, symName: __ZNSt3__19allocatorIcE8allocateB7v160006Em, symObjAddr: 0x26CC, symBinAddr: 0x100005324, symSize: 0x58 }
  - { offsetInCU: 0xC462, offset: 0xC462, size: 0x8, addend: 0x0, symName: __ZNSt3__117__compressed_pairINS_12basic_stringIcNS_11char_traitsIcEENS_9allocatorIcEEE5__repES5_E6secondB7v160006Ev, symObjAddr: 0x2808, symBinAddr: 0x100005460, symSize: 0x24 }
  - { offsetInCU: 0xC487, offset: 0xC487, size: 0x8, addend: 0x0, symName: __ZNSt3__122__compressed_pair_elemINS_9allocatorIcEELi1ELb1EE5__getB7v160006Ev, symObjAddr: 0x282C, symBinAddr: 0x100005484, symSize: 0x14 }
  - { offsetInCU: 0xC4AC, offset: 0xC4AC, size: 0x8, addend: 0x0, symName: __ZNSt3__112basic_stringIcNS_11char_traitsIcEENS_9allocatorIcEEE18__get_long_pointerB7v160006Ev, symObjAddr: 0x2840, symBinAddr: 0x100005498, symSize: 0x28 }
  - { offsetInCU: 0xC4D1, offset: 0xC4D1, size: 0x8, addend: 0x0, symName: __ZNSt3__112basic_stringIcNS_11char_traitsIcEENS_9allocatorIcEEE19__get_short_pointerB7v160006Ev, symObjAddr: 0x2868, symBinAddr: 0x1000054C0, symSize: 0x28 }
  - { offsetInCU: 0xC4F6, offset: 0xC4F6, size: 0x8, addend: 0x0, symName: __ZNSt3__114pointer_traitsIPcE10pointer_toB7v160006ERc, symObjAddr: 0x2890, symBinAddr: 0x1000054E8, symSize: 0x14 }
  - { offsetInCU: 0xC53C, offset: 0xC53C, size: 0x8, addend: 0x0, symName: __ZNKSt3__114__copy_trivialclB7v160006IKccLi0EEENS_4pairIPT_PT0_EES5_S5_S7_, symObjAddr: 0x2AC4, symBinAddr: 0x10000571C, symSize: 0x48 }
  - { offsetInCU: 0xC5C1, offset: 0xC5C1, size: 0x8, addend: 0x0, symName: __ZNSt3__14pairIPKcS2_EC1B7v160006IS2_S2_LPv0EEEOT_OT0_, symObjAddr: 0x2C2C, symBinAddr: 0x100005884, symSize: 0x3C }
  - { offsetInCU: 0xC61D, offset: 0xC61D, size: 0x8, addend: 0x0, symName: __ZNSt3__14pairIPKcS2_EC2B7v160006IS2_S2_LPv0EEEOT_OT0_, symObjAddr: 0x2C68, symBinAddr: 0x1000058C0, symSize: 0x34 }
  - { offsetInCU: 0xC67A, offset: 0xC67A, size: 0x8, addend: 0x0, symName: __ZNSt3__118__unwrap_iter_implIPKcLb1EE8__unwrapB7v160006ES2_, symObjAddr: 0x2C9C, symBinAddr: 0x1000058F4, symSize: 0x24 }
  - { offsetInCU: 0xC6A7, offset: 0xC6A7, size: 0x8, addend: 0x0, symName: __ZNSt3__14pairIPKcPcEC1B7v160006IRS2_S3_LPv0EEEOT_OT0_, symObjAddr: 0x2D88, symBinAddr: 0x1000059E0, symSize: 0x3C }
  - { offsetInCU: 0xC703, offset: 0xC703, size: 0x8, addend: 0x0, symName: __ZNSt3__14pairIPKcPcEC2B7v160006IRS2_S3_LPv0EEEOT_OT0_, symObjAddr: 0x2DC4, symBinAddr: 0x100005A1C, symSize: 0x34 }
  - { offsetInCU: 0xC760, offset: 0xC760, size: 0x8, addend: 0x0, symName: __ZNSt3__118__unwrap_iter_implIPcLb1EE8__unwrapB7v160006ES1_, symObjAddr: 0x2DF8, symBinAddr: 0x100005A50, symSize: 0x24 }
  - { offsetInCU: 0xC783, offset: 0xC783, size: 0x8, addend: 0x0, symName: __ZNSt3__14pairIPKcPcEC1B7v160006IS2_S3_LPv0EEEOT_OT0_, symObjAddr: 0x2E1C, symBinAddr: 0x100005A74, symSize: 0x3C }
  - { offsetInCU: 0xC7DF, offset: 0xC7DF, size: 0x8, addend: 0x0, symName: __ZNSt3__14pairIPKcPcEC2B7v160006IS2_S3_LPv0EEEOT_OT0_, symObjAddr: 0x2E58, symBinAddr: 0x100005AB0, symSize: 0x34 }
  - { offsetInCU: 0xC83C, offset: 0xC83C, size: 0x8, addend: 0x0, symName: __ZNSt3__118__unwrap_iter_implIPKcLb1EE8__rewrapB7v160006ES2_S2_, symObjAddr: 0x2EC8, symBinAddr: 0x100005B20, symSize: 0x48 }
  - { offsetInCU: 0xC86D, offset: 0xC86D, size: 0x8, addend: 0x0, symName: __ZNSt3__118__unwrap_iter_implIPcLb1EE8__rewrapB7v160006ES1_S1_, symObjAddr: 0x2F10, symBinAddr: 0x100005B68, symSize: 0x48 }
  - { offsetInCU: 0xC89E, offset: 0xC89E, size: 0x8, addend: 0x0, symName: __ZNKSt3__112basic_stringIcNS_11char_traitsIcEENS_9allocatorIcEEE13__get_pointerB7v160006Ev, symObjAddr: 0x2F58, symBinAddr: 0x100005BB0, symSize: 0x54 }
  - { offsetInCU: 0xC8C3, offset: 0xC8C3, size: 0x8, addend: 0x0, symName: __ZNKSt3__112basic_stringIcNS_11char_traitsIcEENS_9allocatorIcEEE18__get_long_pointerB7v160006Ev, symObjAddr: 0x2FAC, symBinAddr: 0x100005C04, symSize: 0x28 }
  - { offsetInCU: 0xC8E8, offset: 0xC8E8, size: 0x8, addend: 0x0, symName: __ZNKSt3__112basic_stringIcNS_11char_traitsIcEENS_9allocatorIcEEE19__get_short_pointerB7v160006Ev, symObjAddr: 0x2FD4, symBinAddr: 0x100005C2C, symSize: 0x28 }
  - { offsetInCU: 0xC90D, offset: 0xC90D, size: 0x8, addend: 0x0, symName: __ZNSt3__114pointer_traitsIPKcE10pointer_toB7v160006ERS1_, symObjAddr: 0x2FFC, symBinAddr: 0x100005C54, symSize: 0x14 }
  - { offsetInCU: 0xC930, offset: 0xC930, size: 0x8, addend: 0x0, symName: __ZNKSt3__16vectorIPN4sdds8ResourceENS_9allocatorIS3_EEE11__make_iterB7v160006EPKS3_, symObjAddr: 0x30CC, symBinAddr: 0x100005D24, symSize: 0x34 }
  - { offsetInCU: 0xC964, offset: 0xC964, size: 0x8, addend: 0x0, symName: __ZNSt3__111__wrap_iterIPKPN4sdds8ResourceEEC1B7v160006EPKvS5_, symObjAddr: 0x3100, symBinAddr: 0x100005D58, symSize: 0x3C }
  - { offsetInCU: 0xC9A8, offset: 0xC9A8, size: 0x8, addend: 0x0, symName: __ZNSt3__111__wrap_iterIPKPN4sdds8ResourceEEC2B7v160006EPKvS5_, symObjAddr: 0x313C, symBinAddr: 0x100005D94, symSize: 0x24 }
  - { offsetInCU: 0xC9ED, offset: 0xC9ED, size: 0x8, addend: 0x0, symName: __ZNSt3__16vectorIN4sdds7OpFlagsENS_9allocatorIS2_EEED2B7v160006Ev, symObjAddr: 0x3160, symBinAddr: 0x100005DB8, symSize: 0x44 }
  - { offsetInCU: 0xCA15, offset: 0xCA15, size: 0x8, addend: 0x0, symName: __ZNSt3__16vectorIN4sdds7OpFlagsENS_9allocatorIS2_EEE16__destroy_vectorC1ERS5_, symObjAddr: 0x31A4, symBinAddr: 0x100005DFC, symSize: 0x34 }
  - { offsetInCU: 0xCA4C, offset: 0xCA4C, size: 0x8, addend: 0x0, symName: __ZNSt3__16vectorIN4sdds7OpFlagsENS_9allocatorIS2_EEE16__destroy_vectorclB7v160006Ev, symObjAddr: 0x31D8, symBinAddr: 0x100005E30, symSize: 0x9C }
  - { offsetInCU: 0xCA71, offset: 0xCA71, size: 0x8, addend: 0x0, symName: __ZNSt3__16vectorIN4sdds7OpFlagsENS_9allocatorIS2_EEE16__destroy_vectorC2ERS5_, symObjAddr: 0x3274, symBinAddr: 0x100005ECC, symSize: 0x20 }
  - { offsetInCU: 0xCAA9, offset: 0xCAA9, size: 0x8, addend: 0x0, symName: __ZNKSt3__16vectorIN4sdds7OpFlagsENS_9allocatorIS2_EEE17__annotate_deleteB7v160006Ev, symObjAddr: 0x3294, symBinAddr: 0x100005EEC, symSize: 0xB8 }
  - { offsetInCU: 0xCACE, offset: 0xCACE, size: 0x8, addend: 0x0, symName: __ZNSt3__16vectorIN4sdds7OpFlagsENS_9allocatorIS2_EEE7__clearB7v160006Ev, symObjAddr: 0x335C, symBinAddr: 0x100005FB4, symSize: 0x28 }
  - { offsetInCU: 0xCAF3, offset: 0xCAF3, size: 0x8, addend: 0x0, symName: __ZNSt3__116allocator_traitsINS_9allocatorIN4sdds7OpFlagsEEEE10deallocateB7v160006ERS4_PS3_m, symObjAddr: 0x3384, symBinAddr: 0x100005FDC, symSize: 0x34 }
  - { offsetInCU: 0xCB35, offset: 0xCB35, size: 0x8, addend: 0x0, symName: __ZNSt3__16vectorIN4sdds7OpFlagsENS_9allocatorIS2_EEE7__allocB7v160006Ev, symObjAddr: 0x33B8, symBinAddr: 0x100006010, symSize: 0x28 }
  - { offsetInCU: 0xCB5A, offset: 0xCB5A, size: 0x8, addend: 0x0, symName: __ZNKSt3__16vectorIN4sdds7OpFlagsENS_9allocatorIS2_EEE8capacityB7v160006Ev, symObjAddr: 0x33E0, symBinAddr: 0x100006038, symSize: 0x40 }
  - { offsetInCU: 0xCB7F, offset: 0xCB7F, size: 0x8, addend: 0x0, symName: __ZNKSt3__16vectorIN4sdds7OpFlagsENS_9allocatorIS2_EEE31__annotate_contiguous_containerB7v160006EPKvS7_S7_S7_, symObjAddr: 0x3420, symBinAddr: 0x100006078, symSize: 0x20 }
  - { offsetInCU: 0xCBD0, offset: 0xCBD0, size: 0x8, addend: 0x0, symName: __ZNKSt3__16vectorIN4sdds7OpFlagsENS_9allocatorIS2_EEE4dataB7v160006Ev, symObjAddr: 0x3440, symBinAddr: 0x100006098, symSize: 0x28 }
  - { offsetInCU: 0xCBF5, offset: 0xCBF5, size: 0x8, addend: 0x0, symName: __ZNKSt3__16vectorIN4sdds7OpFlagsENS_9allocatorIS2_EEE4sizeB7v160006Ev, symObjAddr: 0x3468, symBinAddr: 0x1000060C0, symSize: 0x28 }
  - { offsetInCU: 0xCC1A, offset: 0xCC1A, size: 0x8, addend: 0x0, symName: __ZNSt3__16vectorIN4sdds7OpFlagsENS_9allocatorIS2_EEE22__base_destruct_at_endB7v160006EPS2_, symObjAddr: 0x34A4, symBinAddr: 0x1000060FC, symSize: 0x8C }
  - { offsetInCU: 0xCC5D, offset: 0xCC5D, size: 0x8, addend: 0x0, symName: __ZNSt3__116allocator_traitsINS_9allocatorIN4sdds7OpFlagsEEEE7destroyB7v160006IS3_vEEvRS4_PT_, symObjAddr: 0x3530, symBinAddr: 0x100006188, symSize: 0x2C }
  - { offsetInCU: 0xCC9A, offset: 0xCC9A, size: 0x8, addend: 0x0, symName: __ZNSt3__19allocatorIN4sdds7OpFlagsEE7destroyB7v160006EPS2_, symObjAddr: 0x355C, symBinAddr: 0x1000061B4, symSize: 0x14 }
  - { offsetInCU: 0xCCCD, offset: 0xCCCD, size: 0x8, addend: 0x0, symName: __ZNSt3__19allocatorIN4sdds7OpFlagsEE10deallocateB7v160006EPS2_m, symObjAddr: 0x3570, symBinAddr: 0x1000061C8, symSize: 0x40 }
  - { offsetInCU: 0xCD0E, offset: 0xCD0E, size: 0x8, addend: 0x0, symName: __ZNSt3__117__compressed_pairIPN4sdds7OpFlagsENS_9allocatorIS2_EEE6secondB7v160006Ev, symObjAddr: 0x35B0, symBinAddr: 0x100006208, symSize: 0x24 }
  - { offsetInCU: 0xCD33, offset: 0xCD33, size: 0x8, addend: 0x0, symName: __ZNSt3__122__compressed_pair_elemINS_9allocatorIN4sdds7OpFlagsEEELi1ELb1EE5__getB7v160006Ev, symObjAddr: 0x35D4, symBinAddr: 0x10000622C, symSize: 0x14 }
  - { offsetInCU: 0xCD58, offset: 0xCD58, size: 0x8, addend: 0x0, symName: __ZNKSt3__16vectorIN4sdds7OpFlagsENS_9allocatorIS2_EEE9__end_capB7v160006Ev, symObjAddr: 0x35E8, symBinAddr: 0x100006240, symSize: 0x28 }
  - { offsetInCU: 0xCD7D, offset: 0xCD7D, size: 0x8, addend: 0x0, symName: __ZNKSt3__117__compressed_pairIPN4sdds7OpFlagsENS_9allocatorIS2_EEE5firstB7v160006Ev, symObjAddr: 0x3610, symBinAddr: 0x100006268, symSize: 0x24 }
  - { offsetInCU: 0xCDA2, offset: 0xCDA2, size: 0x8, addend: 0x0, symName: __ZNKSt3__122__compressed_pair_elemIPN4sdds7OpFlagsELi0ELb0EE5__getB7v160006Ev, symObjAddr: 0x3634, symBinAddr: 0x10000628C, symSize: 0x14 }
  - { offsetInCU: 0xCDC7, offset: 0xCDC7, size: 0x8, addend: 0x0, symName: __ZNSt3__16vectorIN4sdds7OpFlagsENS_9allocatorIS2_EEEC2B7v160006Ev, symObjAddr: 0x3648, symBinAddr: 0x1000062A0, symSize: 0x58 }
  - { offsetInCU: 0xCDEF, offset: 0xCDEF, size: 0x8, addend: 0x0, symName: __ZNSt3__117__compressed_pairIPN4sdds7OpFlagsENS_9allocatorIS2_EEEC1B7v160006IDnNS_18__default_init_tagEEEOT_OT0_, symObjAddr: 0x36A0, symBinAddr: 0x1000062F8, symSize: 0x3C }
  - { offsetInCU: 0xCE45, offset: 0xCE45, size: 0x8, addend: 0x0, symName: __ZNSt3__117__compressed_pairIPN4sdds7OpFlagsENS_9allocatorIS2_EEEC2B7v160006IDnNS_18__default_init_tagEEEOT_OT0_, symObjAddr: 0x36EC, symBinAddr: 0x100006344, symSize: 0x40 }
  - { offsetInCU: 0xCE9B, offset: 0xCE9B, size: 0x8, addend: 0x0, symName: __ZNSt3__122__compressed_pair_elemIPN4sdds7OpFlagsELi0ELb0EEC2B7v160006IDnvEEOT_, symObjAddr: 0x372C, symBinAddr: 0x100006384, symSize: 0x1C }
  - { offsetInCU: 0xCEDC, offset: 0xCEDC, size: 0x8, addend: 0x0, symName: __ZNSt3__122__compressed_pair_elemINS_9allocatorIN4sdds7OpFlagsEEELi1ELb1EEC2B7v160006ENS_18__default_init_tagE, symObjAddr: 0x3748, symBinAddr: 0x1000063A0, symSize: 0x2C }
  - { offsetInCU: 0xCF0F, offset: 0xCF0F, size: 0x8, addend: 0x0, symName: __ZNSt3__19allocatorIN4sdds7OpFlagsEEC2B7v160006Ev, symObjAddr: 0x3774, symBinAddr: 0x1000063CC, symSize: 0x2C }
  - { offsetInCU: 0xCF37, offset: 0xCF37, size: 0x8, addend: 0x0, symName: __ZNSt3__116__non_trivial_ifILb1ENS_9allocatorIN4sdds7OpFlagsEEEEC2B7v160006Ev, symObjAddr: 0x37A0, symBinAddr: 0x1000063F8, symSize: 0x14 }
  - { offsetInCU: 0xCF60, offset: 0xCF60, size: 0x8, addend: 0x0, symName: __ZNSt3__16vectorIPN4sdds8ResourceENS_9allocatorIS3_EEE9__end_capB7v160006Ev, symObjAddr: 0x37B4, symBinAddr: 0x10000640C, symSize: 0x28 }
  - { offsetInCU: 0xCF85, offset: 0xCF85, size: 0x8, addend: 0x0, symName: __ZNSt3__16vectorIPN4sdds8ResourceENS_9allocatorIS3_EEE22__construct_one_at_endB7v160006IJRKS3_EEEvDpOT_, symObjAddr: 0x37DC, symBinAddr: 0x100006434, symSize: 0x90 }
  - { offsetInCU: 0xCFD2, offset: 0xCFD2, size: 0x8, addend: 0x0, symName: __ZNSt3__16vectorIPN4sdds8ResourceENS_9allocatorIS3_EEE21__push_back_slow_pathIRKS3_EEvOT_, symObjAddr: 0x386C, symBinAddr: 0x1000064C4, symSize: 0xD8 }
  - { offsetInCU: 0xD02F, offset: 0xD02F, size: 0x8, addend: 0x0, symName: __ZNSt3__117__compressed_pairIPPN4sdds8ResourceENS_9allocatorIS3_EEE5firstB7v160006Ev, symObjAddr: 0x3944, symBinAddr: 0x10000659C, symSize: 0x24 }
  - { offsetInCU: 0xD054, offset: 0xD054, size: 0x8, addend: 0x0, symName: __ZNSt3__122__compressed_pair_elemIPPN4sdds8ResourceELi0ELb0EE5__getB7v160006Ev, symObjAddr: 0x3968, symBinAddr: 0x1000065C0, symSize: 0x14 }
  - { offsetInCU: 0xD092, offset: 0xD092, size: 0x8, addend: 0x0, symName: __ZNSt3__16vectorIPN4sdds8ResourceENS_9allocatorIS3_EEE21_ConstructTransactionC1B7v160006ERS6_m, symObjAddr: 0x397C, symBinAddr: 0x1000065D4, symSize: 0x3C }
  - { offsetInCU: 0xD0D8, offset: 0xD0D8, size: 0x8, addend: 0x0, symName: __ZNSt3__116allocator_traitsINS_9allocatorIPN4sdds8ResourceEEEE9constructB7v160006IS4_JRKS4_EvEEvRS5_PT_DpOT0_, symObjAddr: 0x39B8, symBinAddr: 0x100006610, symSize: 0x34 }
  - { offsetInCU: 0xD12F, offset: 0xD12F, size: 0x8, addend: 0x0, symName: __ZNSt3__16vectorIPN4sdds8ResourceENS_9allocatorIS3_EEE21_ConstructTransactionD1B7v160006Ev, symObjAddr: 0x39EC, symBinAddr: 0x100006644, symSize: 0x2C }
  - { offsetInCU: 0xD157, offset: 0xD157, size: 0x8, addend: 0x0, symName: __ZNSt3__16vectorIPN4sdds8ResourceENS_9allocatorIS3_EEE21_ConstructTransactionC2B7v160006ERS6_m, symObjAddr: 0x3A18, symBinAddr: 0x100006670, symSize: 0x44 }
  - { offsetInCU: 0xD19E, offset: 0xD19E, size: 0x8, addend: 0x0, symName: __ZNSt3__19allocatorIPN4sdds8ResourceEE9constructB7v160006IS3_JRKS3_EEEvPT_DpOT0_, symObjAddr: 0x3A5C, symBinAddr: 0x1000066B4, symSize: 0x28 }
  - { offsetInCU: 0xD1F3, offset: 0xD1F3, size: 0x8, addend: 0x0, symName: __ZNSt3__16vectorIPN4sdds8ResourceENS_9allocatorIS3_EEE21_ConstructTransactionD2B7v160006Ev, symObjAddr: 0x3A84, symBinAddr: 0x1000066DC, symSize: 0x20 }
  - { offsetInCU: 0xD21B, offset: 0xD21B, size: 0x8, addend: 0x0, symName: __ZNKSt3__16vectorIPN4sdds8ResourceENS_9allocatorIS3_EEE11__recommendB7v160006Em, symObjAddr: 0x3AA4, symBinAddr: 0x1000066FC, symSize: 0xB4 }
  - { offsetInCU: 0xD26F, offset: 0xD26F, size: 0x8, addend: 0x0, symName: __ZNSt3__114__split_bufferIPN4sdds8ResourceERNS_9allocatorIS3_EEEC1EmmS6_, symObjAddr: 0x3B58, symBinAddr: 0x1000067B0, symSize: 0x44 }
  - { offsetInCU: 0xD2C4, offset: 0xD2C4, size: 0x8, addend: 0x0, symName: __ZNSt3__114__split_bufferIPN4sdds8ResourceERNS_9allocatorIS3_EEED1Ev, symObjAddr: 0x3CB4, symBinAddr: 0x10000690C, symSize: 0x2C }
  - { offsetInCU: 0xD2EE, offset: 0xD2EE, size: 0x8, addend: 0x0, symName: __ZNKSt3__16vectorIPN4sdds8ResourceENS_9allocatorIS3_EEE8max_sizeEv, symObjAddr: 0x3CE0, symBinAddr: 0x100006938, symSize: 0x60 }
  - { offsetInCU: 0xD315, offset: 0xD315, size: 0x8, addend: 0x0, symName: __ZNKSt3__16vectorIPN4sdds8ResourceENS_9allocatorIS3_EEE20__throw_length_errorB7v160006Ev, symObjAddr: 0x3D40, symBinAddr: 0x100006998, symSize: 0x1C }
  - { offsetInCU: 0xD344, offset: 0xD344, size: 0x8, addend: 0x0, symName: __ZNSt3__116allocator_traitsINS_9allocatorIPN4sdds8ResourceEEEE8max_sizeB7v160006IS5_vEEmRKS5_, symObjAddr: 0x3DB4, symBinAddr: 0x100006A0C, symSize: 0x24 }
  - { offsetInCU: 0xD372, offset: 0xD372, size: 0x8, addend: 0x0, symName: __ZNKSt3__16vectorIPN4sdds8ResourceENS_9allocatorIS3_EEE7__allocB7v160006Ev, symObjAddr: 0x3DD8, symBinAddr: 0x100006A30, symSize: 0x28 }
  - { offsetInCU: 0xD397, offset: 0xD397, size: 0x8, addend: 0x0, symName: __ZNSt3__114numeric_limitsIlE3maxB7v160006Ev, symObjAddr: 0x3E00, symBinAddr: 0x100006A58, symSize: 0x14 }
  - { offsetInCU: 0xD3BF, offset: 0xD3BF, size: 0x8, addend: 0x0, symName: __ZNKSt3__16__lessImmEclB7v160006ERKmS3_, symObjAddr: 0x3E68, symBinAddr: 0x100006AC0, symSize: 0x34 }
  - { offsetInCU: 0xD400, offset: 0xD400, size: 0x8, addend: 0x0, symName: __ZNKSt3__19allocatorIPN4sdds8ResourceEE8max_sizeB7v160006Ev, symObjAddr: 0x3E9C, symBinAddr: 0x100006AF4, symSize: 0x14 }
  - { offsetInCU: 0xD425, offset: 0xD425, size: 0x8, addend: 0x0, symName: __ZNKSt3__117__compressed_pairIPPN4sdds8ResourceENS_9allocatorIS3_EEE6secondB7v160006Ev, symObjAddr: 0x3EB0, symBinAddr: 0x100006B08, symSize: 0x24 }
  - { offsetInCU: 0xD44A, offset: 0xD44A, size: 0x8, addend: 0x0, symName: __ZNKSt3__122__compressed_pair_elemINS_9allocatorIPN4sdds8ResourceEEELi1ELb1EE5__getB7v160006Ev, symObjAddr: 0x3ED4, symBinAddr: 0x100006B2C, symSize: 0x14 }
  - { offsetInCU: 0xD46F, offset: 0xD46F, size: 0x8, addend: 0x0, symName: __ZNSt3__123__libcpp_numeric_limitsIlLb1EE3maxB7v160006Ev, symObjAddr: 0x3EE8, symBinAddr: 0x100006B40, symSize: 0x8 }
  - { offsetInCU: 0xD483, offset: 0xD483, size: 0x8, addend: 0x0, symName: __ZNSt3__114__split_bufferIPN4sdds8ResourceERNS_9allocatorIS3_EEEC2EmmS6_, symObjAddr: 0x3F44, symBinAddr: 0x100006B9C, symSize: 0xD4 }
  - { offsetInCU: 0xD4F5, offset: 0xD4F5, size: 0x8, addend: 0x0, symName: __ZNSt3__117__compressed_pairIPPN4sdds8ResourceERNS_9allocatorIS3_EEEC1B7v160006IDnS7_EEOT_OT0_, symObjAddr: 0x4018, symBinAddr: 0x100006C70, symSize: 0x3C }
  - { offsetInCU: 0xD54B, offset: 0xD54B, size: 0x8, addend: 0x0, symName: __ZNSt3__114__split_bufferIPN4sdds8ResourceERNS_9allocatorIS3_EEE7__allocB7v160006Ev, symObjAddr: 0x4094, symBinAddr: 0x100006CEC, symSize: 0x28 }
  - { offsetInCU: 0xD570, offset: 0xD570, size: 0x8, addend: 0x0, symName: __ZNSt3__114__split_bufferIPN4sdds8ResourceERNS_9allocatorIS3_EEE9__end_capB7v160006Ev, symObjAddr: 0x40BC, symBinAddr: 0x100006D14, symSize: 0x28 }
  - { offsetInCU: 0xD595, offset: 0xD595, size: 0x8, addend: 0x0, symName: __ZNSt3__117__compressed_pairIPPN4sdds8ResourceERNS_9allocatorIS3_EEEC2B7v160006IDnS7_EEOT_OT0_, symObjAddr: 0x40E4, symBinAddr: 0x100006D3C, symSize: 0x48 }
  - { offsetInCU: 0xD5EB, offset: 0xD5EB, size: 0x8, addend: 0x0, symName: __ZNSt3__122__compressed_pair_elemIRNS_9allocatorIPN4sdds8ResourceEEELi1ELb0EEC2B7v160006IS6_vEEOT_, symObjAddr: 0x412C, symBinAddr: 0x100006D84, symSize: 0x20 }
  - { offsetInCU: 0xD62C, offset: 0xD62C, size: 0x8, addend: 0x0, symName: __ZNSt3__19allocatorIPN4sdds8ResourceEE8allocateB7v160006Em, symObjAddr: 0x414C, symBinAddr: 0x100006DA4, symSize: 0x58 }
  - { offsetInCU: 0xD65F, offset: 0xD65F, size: 0x8, addend: 0x0, symName: __ZNSt3__117__compressed_pairIPPN4sdds8ResourceERNS_9allocatorIS3_EEE6secondB7v160006Ev, symObjAddr: 0x41A4, symBinAddr: 0x100006DFC, symSize: 0x28 }
  - { offsetInCU: 0xD684, offset: 0xD684, size: 0x8, addend: 0x0, symName: __ZNSt3__122__compressed_pair_elemIRNS_9allocatorIPN4sdds8ResourceEEELi1ELb0EE5__getB7v160006Ev, symObjAddr: 0x41CC, symBinAddr: 0x100006E24, symSize: 0x18 }
  - { offsetInCU: 0xD6A9, offset: 0xD6A9, size: 0x8, addend: 0x0, symName: __ZNSt3__117__compressed_pairIPPN4sdds8ResourceERNS_9allocatorIS3_EEE5firstB7v160006Ev, symObjAddr: 0x41E4, symBinAddr: 0x100006E3C, symSize: 0x24 }
  - { offsetInCU: 0xD6CE, offset: 0xD6CE, size: 0x8, addend: 0x0, symName: __ZNSt3__116reverse_iteratorIPPN4sdds8ResourceEEC1B7v160006ES4_, symObjAddr: 0x4280, symBinAddr: 0x100006ED8, symSize: 0x34 }
  - { offsetInCU: 0xD704, offset: 0xD704, size: 0x8, addend: 0x0, symName: __ZNKSt3__116reverse_iteratorIPPN4sdds8ResourceEE4baseB7v160006Ev, symObjAddr: 0x42B4, symBinAddr: 0x100006F0C, symSize: 0x18 }
  - { offsetInCU: 0xD729, offset: 0xD729, size: 0x8, addend: 0x0, symName: __ZNKSt3__16vectorIPN4sdds8ResourceENS_9allocatorIS3_EEE14__annotate_newB7v160006Em, symObjAddr: 0x4308, symBinAddr: 0x100006F60, symSize: 0xAC }
  - { offsetInCU: 0xD780, offset: 0xD780, size: 0x8, addend: 0x0, symName: __ZNKSt3__111__move_loopINS_17_ClassicAlgPolicyEEclB7v160006INS_16reverse_iteratorIPPN4sdds8ResourceEEES9_S9_EENS_4pairIT_T1_EESB_T0_SC_, symObjAddr: 0x46B4, symBinAddr: 0x10000730C, symSize: 0xA0 }
  - { offsetInCU: 0xD7EF, offset: 0xD7EF, size: 0x8, addend: 0x0, symName: __ZNSt3__18_IterOpsINS_17_ClassicAlgPolicyEE11__iter_moveB7v160006IRNS_16reverse_iteratorIPPN4sdds8ResourceEEEEENS_9enable_ifIXsr12is_referenceIDTdeclsr3stdE7declvalIRT_EEEEE5valueEDTclsr3stdE4movedeclsr3stdE7declvalISD_EEEEE4typeEOSC_, symObjAddr: 0x48E8, symBinAddr: 0x100007540, symSize: 0x28 }
  - { offsetInCU: 0xD81B, offset: 0xD81B, size: 0x8, addend: 0x0, symName: __ZNKSt3__116reverse_iteratorIPPN4sdds8ResourceEEdeB7v160006Ev, symObjAddr: 0x4910, symBinAddr: 0x100007568, symSize: 0x28 }
  - { offsetInCU: 0xD84E, offset: 0xD84E, size: 0x8, addend: 0x0, symName: __ZNSt3__116reverse_iteratorIPPN4sdds8ResourceEEppB7v160006Ev, symObjAddr: 0x4938, symBinAddr: 0x100007590, symSize: 0x20 }
  - { offsetInCU: 0xD873, offset: 0xD873, size: 0x8, addend: 0x0, symName: __ZNSt3__18_IterOpsINS_17_ClassicAlgPolicyEE25__validate_iter_referenceB7v160006IRNS_16reverse_iteratorIPPN4sdds8ResourceEEEEEvv, symObjAddr: 0x4958, symBinAddr: 0x1000075B0, symSize: 0x4 }
  - { offsetInCU: 0xD891, offset: 0xD891, size: 0x8, addend: 0x0, symName: __ZNSt3__118__unwrap_iter_implINS_16reverse_iteratorIPPN4sdds8ResourceEEELb0EE8__unwrapB7v160006ES6_, symObjAddr: 0x495C, symBinAddr: 0x1000075B4, symSize: 0x24 }
  - { offsetInCU: 0xD8B9, offset: 0xD8B9, size: 0x8, addend: 0x0, symName: __ZNSt3__14pairINS_16reverse_iteratorIPPN4sdds8ResourceEEES6_EC1B7v160006IS6_S6_LPv0EEEOT_OT0_, symObjAddr: 0x4980, symBinAddr: 0x1000075D8, symSize: 0x3C }
  - { offsetInCU: 0xD915, offset: 0xD915, size: 0x8, addend: 0x0, symName: __ZNSt3__14pairINS_16reverse_iteratorIPPN4sdds8ResourceEEES6_EC2B7v160006IS6_S6_LPv0EEEOT_OT0_, symObjAddr: 0x49BC, symBinAddr: 0x100007614, symSize: 0x34 }
  - { offsetInCU: 0xD972, offset: 0xD972, size: 0x8, addend: 0x0, symName: __ZNSt3__118__unwrap_iter_implINS_16reverse_iteratorIPPN4sdds8ResourceEEELb0EE8__rewrapB7v160006ES6_S6_, symObjAddr: 0x49F0, symBinAddr: 0x100007648, symSize: 0x2C }
  - { offsetInCU: 0xD9A0, offset: 0xD9A0, size: 0x8, addend: 0x0, symName: __ZNSt3__116reverse_iteratorIPPN4sdds8ResourceEEC2B7v160006ES4_, symObjAddr: 0x4A1C, symBinAddr: 0x100007674, symSize: 0x28 }
  - { offsetInCU: 0xD9D7, offset: 0xD9D7, size: 0x8, addend: 0x0, symName: __ZNSt3__114__split_bufferIPN4sdds8ResourceERNS_9allocatorIS3_EEED2Ev, symObjAddr: 0x4A44, symBinAddr: 0x10000769C, symSize: 0x8C }
  - { offsetInCU: 0xDA02, offset: 0xDA02, size: 0x8, addend: 0x0, symName: __ZNSt3__114__split_bufferIPN4sdds8ResourceERNS_9allocatorIS3_EEE5clearB7v160006Ev, symObjAddr: 0x4AD0, symBinAddr: 0x100007728, symSize: 0x28 }
  - { offsetInCU: 0xDA27, offset: 0xDA27, size: 0x8, addend: 0x0, symName: __ZNKSt3__114__split_bufferIPN4sdds8ResourceERNS_9allocatorIS3_EEE8capacityB7v160006Ev, symObjAddr: 0x4AF8, symBinAddr: 0x100007750, symSize: 0x40 }
  - { offsetInCU: 0xDA4C, offset: 0xDA4C, size: 0x8, addend: 0x0, symName: __ZNSt3__114__split_bufferIPN4sdds8ResourceERNS_9allocatorIS3_EEE17__destruct_at_endB7v160006EPS3_, symObjAddr: 0x4B38, symBinAddr: 0x100007790, symSize: 0x2C }
  - { offsetInCU: 0xDA7E, offset: 0xDA7E, size: 0x8, addend: 0x0, symName: __ZNSt3__114__split_bufferIPN4sdds8ResourceERNS_9allocatorIS3_EEE17__destruct_at_endB7v160006EPS3_NS_17integral_constantIbLb0EEE, symObjAddr: 0x4B64, symBinAddr: 0x1000077BC, symSize: 0x80 }
  - { offsetInCU: 0xDABE, offset: 0xDABE, size: 0x8, addend: 0x0, symName: __ZNKSt3__114__split_bufferIPN4sdds8ResourceERNS_9allocatorIS3_EEE9__end_capB7v160006Ev, symObjAddr: 0x4BE4, symBinAddr: 0x10000783C, symSize: 0x28 }
  - { offsetInCU: 0xDAE3, offset: 0xDAE3, size: 0x8, addend: 0x0, symName: __ZNKSt3__117__compressed_pairIPPN4sdds8ResourceERNS_9allocatorIS3_EEE5firstB7v160006Ev, symObjAddr: 0x4C0C, symBinAddr: 0x100007864, symSize: 0x24 }
  - { offsetInCU: 0xDB08, offset: 0xDB08, size: 0x8, addend: 0x0, symName: __ZNSt3__111char_traitsIcE7compareEPKcS3_m, symObjAddr: 0x4C30, symBinAddr: 0x100007888, symSize: 0x6C }
  - { offsetInCU: 0xDB47, offset: 0xDB47, size: 0x8, addend: 0x0, symName: __ZNKSt3__16vectorIN4sdds7OpFlagsENS_9allocatorIS2_EEE11__make_iterB7v160006EPKS2_, symObjAddr: 0x4CD0, symBinAddr: 0x100007928, symSize: 0x34 }
  - { offsetInCU: 0xDB7B, offset: 0xDB7B, size: 0x8, addend: 0x0, symName: __ZNSt3__111__wrap_iterIPKN4sdds7OpFlagsEEC1B7v160006EPKvS4_, symObjAddr: 0x4D04, symBinAddr: 0x10000795C, symSize: 0x3C }
  - { offsetInCU: 0xDBBF, offset: 0xDBBF, size: 0x8, addend: 0x0, symName: __ZNSt3__111__wrap_iterIPKN4sdds7OpFlagsEEC2B7v160006EPKvS4_, symObjAddr: 0x4D40, symBinAddr: 0x100007998, symSize: 0x24 }
  - { offsetInCU: 0xDC04, offset: 0xDC04, size: 0x8, addend: 0x0, symName: __ZNKSt3__111__wrap_iterIPKN4sdds7OpFlagsEEdeB7v160006Ev, symObjAddr: 0x4D64, symBinAddr: 0x1000079BC, symSize: 0x18 }
  - { offsetInCU: 0xDC29, offset: 0xDC29, size: 0x8, addend: 0x0, symName: __ZNSt3__111__wrap_iterIPKN4sdds7OpFlagsEEppB7v160006Ev, symObjAddr: 0x4D7C, symBinAddr: 0x1000079D4, symSize: 0x20 }
  - { offsetInCU: 0x49BC, offset: 0x12708, size: 0x8, addend: 0x0, symName: __ZN4sdds4FileC2ERKNSt3__112basic_stringIcNS1_11char_traitsIcEENS1_9allocatorIcEEEES9_, symObjAddr: 0x0, symBinAddr: 0x1000079F4, symSize: 0xB0 }
  - { offsetInCU: 0x4A02, offset: 0x1274E, size: 0x8, addend: 0x0, symName: __ZN4sdds4FileC1ERKNSt3__112basic_stringIcNS1_11char_traitsIcEENS1_9allocatorIcEEEES9_, symObjAddr: 0x1A8, symBinAddr: 0x100007AA4, symSize: 0x3C }
  - { offsetInCU: 0x4A48, offset: 0x12794, size: 0x8, addend: 0x0, symName: __ZN4sdds4File18update_parent_pathERKNSt3__112basic_stringIcNS1_11char_traitsIcEENS1_9allocatorIcEEEE, symObjAddr: 0x1E4, symBinAddr: 0x100007AE0, symSize: 0x30 }
  - { offsetInCU: 0x4A7D, offset: 0x127C9, size: 0x8, addend: 0x0, symName: __ZNK4sdds4File4typeEv, symObjAddr: 0x214, symBinAddr: 0x100007B10, symSize: 0x14 }
  - { offsetInCU: 0x4AA4, offset: 0x127F0, size: 0x8, addend: 0x0, symName: __ZNK4sdds4File4pathEv, symObjAddr: 0x228, symBinAddr: 0x100007B24, symSize: 0x7C }
  - { offsetInCU: 0x4ACB, offset: 0x12817, size: 0x8, addend: 0x0, symName: __ZNK4sdds4File4nameEv, symObjAddr: 0x484, symBinAddr: 0x100007BA0, symSize: 0x3C }
  - { offsetInCU: 0x4AF2, offset: 0x1283E, size: 0x8, addend: 0x0, symName: __ZNK4sdds4File5countEv, symObjAddr: 0x4C0, symBinAddr: 0x100007BDC, symSize: 0x14 }
  - { offsetInCU: 0x4B19, offset: 0x12865, size: 0x8, addend: 0x0, symName: __ZNK4sdds4File4sizeEv, symObjAddr: 0x4D4, symBinAddr: 0x100007BF0, symSize: 0x28 }
  - { offsetInCU: 0x4B40, offset: 0x1288C, size: 0x8, addend: 0x0, symName: __ZN4sdds4FileD1Ev, symObjAddr: 0x550, symBinAddr: 0x100007C18, symSize: 0x2C }
  - { offsetInCU: 0x4B68, offset: 0x128B4, size: 0x8, addend: 0x0, symName: __ZN4sdds4FileD0Ev, symObjAddr: 0x57C, symBinAddr: 0x100007C44, symSize: 0x30 }
  - { offsetInCU: 0x4B95, offset: 0x128E1, size: 0x8, addend: 0x0, symName: __ZN4sdds4FileD2Ev, symObjAddr: 0x7CC, symBinAddr: 0x100007C74, symSize: 0x48 }
  - { offsetInCU: 0x52, offset: 0x12965, size: 0x8, addend: 0x0, symName: _cout, symObjAddr: 0x2F334, symBinAddr: 0x100010000, symSize: 0x0 }
  - { offsetInCU: 0x2E9D, offset: 0x157B0, size: 0x8, addend: 0x0, symName: __ZNSt3__124__put_character_sequenceB7v160006IcNS_11char_traitsIcEEEERNS_13basic_ostreamIT_T0_EES7_PKS4_m, symObjAddr: 0x188C, symBinAddr: 0x1000092F0, symSize: 0x1EC }
  - { offsetInCU: 0x5DE9, offset: 0x186FC, size: 0x8, addend: 0x0, symName: __ZNSt3__1lsB7v160006INS_11char_traitsIcEEEERNS_13basic_ostreamIcT_EES6_PKc, symObjAddr: 0x24, symBinAddr: 0x100007CE0, symSize: 0x48 }
  - { offsetInCU: 0x5E2F, offset: 0x18742, size: 0x8, addend: 0x0, symName: __ZNSt3__1lsB7v160006IcNS_11char_traitsIcEENS_9allocatorIcEEEERNS_13basic_ostreamIT_T0_EES9_RKNS_12basic_stringIS6_S7_T1_EE, symObjAddr: 0x114, symBinAddr: 0x100007DD0, symSize: 0x4C }
  - { offsetInCU: 0x5E87, offset: 0x1879A, size: 0x8, addend: 0x0, symName: __ZNSt3__1lsB7v160006IcNS_11char_traitsIcEEEERNS_13basic_ostreamIT_T0_EES7_RKNS_8__iom_t6E, symObjAddr: 0x160, symBinAddr: 0x100007E1C, symSize: 0x40 }
  - { offsetInCU: 0x5ED6, offset: 0x187E9, size: 0x8, addend: 0x0, symName: __ZNSt3__14setwB7v160006Ei, symObjAddr: 0x1A0, symBinAddr: 0x100007E5C, symSize: 0x2C }
  - { offsetInCU: 0x5F04, offset: 0x18817, size: 0x8, addend: 0x0, symName: __ZNSt3__14endlB7v160006IcNS_11char_traitsIcEEEERNS_13basic_ostreamIT_T0_EES7_, symObjAddr: 0x1F8, symBinAddr: 0x100007EB4, symSize: 0x58 }
  - { offsetInCU: 0x5F44, offset: 0x18857, size: 0x8, addend: 0x0, symName: __ZNSt3__14leftB7v160006ERNS_8ios_baseE, symObjAddr: 0x484, symBinAddr: 0x100008140, symSize: 0x30 }
  - { offsetInCU: 0x5F72, offset: 0x18885, size: 0x8, addend: 0x0, symName: __ZNSt3__15rightB7v160006ERNS_8ios_baseE, symObjAddr: 0x4E8, symBinAddr: 0x100008170, symSize: 0x30 }
  - { offsetInCU: 0x5FA0, offset: 0x188B3, size: 0x8, addend: 0x0, symName: __ZNSt3__1plB7v160006IcNS_11char_traitsIcEENS_9allocatorIcEEEENS_12basic_stringIT_T0_T1_EEOS9_PKS6_, symObjAddr: 0x518, symBinAddr: 0x1000081A0, symSize: 0x40 }
  - { offsetInCU: 0x5FF8, offset: 0x1890B, size: 0x8, addend: 0x0, symName: __ZNSt3__1lsB7v160006INS_11char_traitsIcEEEERNS_13basic_ostreamIcT_EES6_c, symObjAddr: 0x14F0, symBinAddr: 0x100009178, symSize: 0x34 }
  - { offsetInCU: 0x603E, offset: 0x18951, size: 0x8, addend: 0x0, symName: __ZNSt3__116__pad_and_outputB7v160006IcNS_11char_traitsIcEEEENS_19ostreambuf_iteratorIT_T0_EES6_PKS4_S8_S8_RNS_8ios_baseES4_, symObjAddr: 0x1A94, symBinAddr: 0x1000094F8, symSize: 0x240 }
  - { offsetInCU: 0x610E, offset: 0x18A21, size: 0x8, addend: 0x0, symName: __ZNSt3__19use_facetB7v160006INS_5ctypeIcEEEERKT_RKNS_6localeE, symObjAddr: 0x21C4, symBinAddr: 0x100009AB4, symSize: 0x2C }
  - { offsetInCU: 0x65E7, offset: 0x18EFA, size: 0x8, addend: 0x0, symName: __ZNSt3__115__debug_db_swapB7v160006INS_12basic_stringIcNS_11char_traitsIcEENS_9allocatorIcEEEEEEvPT_S8_, symObjAddr: 0x24F8, symBinAddr: 0x100009C04, symSize: 0x14 }
  - { offsetInCU: 0x6626, offset: 0x18F39, size: 0x8, addend: 0x0, symName: __ZNSt3__119__allocate_at_leastB7v160006INS_9allocatorIN4sdds7OpFlagsEEEEENS_19__allocation_resultINS_16allocator_traitsIT_E7pointerEEERS7_m, symObjAddr: 0x360C, symBinAddr: 0x10000A368, symSize: 0x40 }
  - { offsetInCU: 0x6669, offset: 0x18F7C, size: 0x8, addend: 0x0, symName: __ZNSt3__142__uninitialized_allocator_move_if_noexceptB7v160006INS_9allocatorIN4sdds7OpFlagsEEENS_16reverse_iteratorIPS3_EES7_S3_vEET1_RT_T0_SB_S8_, symObjAddr: 0x38A4, symBinAddr: 0x10000A51C, symSize: 0x78 }
  - { offsetInCU: 0x66E6, offset: 0x18FF9, size: 0x8, addend: 0x0, symName: __ZNSt3__14swapB7v160006IPN4sdds7OpFlagsEEENS_9enable_ifIXaasr21is_move_constructibleIT_EE5valuesr18is_move_assignableIS5_EE5valueEvE4typeERS5_S8_, symObjAddr: 0x3968, symBinAddr: 0x10000A5E0, symSize: 0x3C }
  - { offsetInCU: 0x6737, offset: 0x1904A, size: 0x8, addend: 0x0, symName: __ZNSt3__125__debug_db_invalidate_allB7v160006INS_6vectorIN4sdds7OpFlagsENS_9allocatorIS3_EEEEEEvPT_, symObjAddr: 0x3A50, symBinAddr: 0x10000A6C8, symSize: 0x10 }
  - { offsetInCU: 0x6768, offset: 0x1907B, size: 0x8, addend: 0x0, symName: __ZNSt3__14moveB7v160006INS_16reverse_iteratorIPN4sdds7OpFlagsEEES5_EET0_T_S7_S6_, symObjAddr: 0x3A60, symBinAddr: 0x10000A6D8, symSize: 0x78 }
  - { offsetInCU: 0x67C2, offset: 0x190D5, size: 0x8, addend: 0x0, symName: __ZNSt3__16__moveB7v160006INS_17_ClassicAlgPolicyENS_16reverse_iteratorIPN4sdds7OpFlagsEEES6_S6_EENS_4pairIT0_T2_EES8_T1_S9_, symObjAddr: 0x3AD8, symBinAddr: 0x10000A750, symSize: 0x64 }
  - { offsetInCU: 0x682E, offset: 0x19141, size: 0x8, addend: 0x0, symName: __ZNSt3__123__dispatch_copy_or_moveB7v160006INS_17_ClassicAlgPolicyENS_11__move_loopIS1_EENS_14__move_trivialENS_16reverse_iteratorIPN4sdds7OpFlagsEEES9_S9_EENS_4pairIT2_T4_EESB_T3_SC_, symObjAddr: 0x3B3C, symBinAddr: 0x10000A7B4, symSize: 0x64 }
  - { offsetInCU: 0x68AC, offset: 0x191BF, size: 0x8, addend: 0x0, symName: __ZNSt3__121__unwrap_and_dispatchB7v160006INS_10__overloadINS_11__move_loopINS_17_ClassicAlgPolicyEEENS_14__move_trivialEEENS_16reverse_iteratorIPN4sdds7OpFlagsEEESB_SB_Li0EEENS_4pairIT0_T2_EESD_T1_SE_, symObjAddr: 0x3BA0, symBinAddr: 0x10000A818, symSize: 0x12C }
  - { offsetInCU: 0x693C, offset: 0x1924F, size: 0x8, addend: 0x0, symName: __ZNSt3__114__unwrap_rangeB7v160006INS_16reverse_iteratorIPN4sdds7OpFlagsEEES5_EENS_4pairIT0_S7_EET_S9_, symObjAddr: 0x3CCC, symBinAddr: 0x10000A944, symSize: 0x84 }
  - { offsetInCU: 0x6AAE, offset: 0x193C1, size: 0x8, addend: 0x0, symName: __ZNSt3__113__unwrap_iterB7v160006INS_16reverse_iteratorIPN4sdds7OpFlagsEEENS_18__unwrap_iter_implIS5_Lb0EEELi0EEEDTclsrT0_8__unwrapclsr3stdE7declvalIT_EEEES9_, symObjAddr: 0x3DF0, symBinAddr: 0x10000AA68, symSize: 0x44 }
  - { offsetInCU: 0x6AF2, offset: 0x19405, size: 0x8, addend: 0x0, symName: __ZNSt3__19make_pairB7v160006INS_16reverse_iteratorIPN4sdds7OpFlagsEEES5_EENS_4pairINS_18__unwrap_ref_decayIT_E4typeENS7_IT0_E4typeEEEOS8_OSB_, symObjAddr: 0x3E34, symBinAddr: 0x10000AAAC, symSize: 0x38 }
  - { offsetInCU: 0x6B41, offset: 0x19454, size: 0x8, addend: 0x0, symName: __ZNSt3__114__rewrap_rangeB7v160006INS_16reverse_iteratorIPN4sdds7OpFlagsEEES5_EET_S6_T0_, symObjAddr: 0x3E6C, symBinAddr: 0x10000AAE4, symSize: 0x5C }
  - { offsetInCU: 0x6B8D, offset: 0x194A0, size: 0x8, addend: 0x0, symName: __ZNSt3__113__rewrap_iterB7v160006INS_16reverse_iteratorIPN4sdds7OpFlagsEEES5_NS_18__unwrap_iter_implIS5_Lb0EEEEET_S8_T0_, symObjAddr: 0x3EC8, symBinAddr: 0x10000AB40, symSize: 0x74 }
  - { offsetInCU: 0x6BE2, offset: 0x194F5, size: 0x8, addend: 0x0, symName: __ZNSt3__1neB7v160006IPN4sdds7OpFlagsES3_EEbRKNS_16reverse_iteratorIT_EERKNS4_IT0_EE, symObjAddr: 0x3F3C, symBinAddr: 0x10000ABB4, symSize: 0x48 }
  - { offsetInCU: 0x7CEE, offset: 0x1A601, size: 0x8, addend: 0x0, symName: __ZNSt3__16vectorIN4sdds7OpFlagsENS_9allocatorIS2_EEE26__swap_out_circular_bufferERNS_14__split_bufferIS2_RS4_EE, symObjAddr: 0x3070, symBinAddr: 0x10000A000, symSize: 0x118 }
  - { offsetInCU: 0x9A86, offset: 0x1C399, size: 0x8, addend: 0x0, symName: __Z9printLinev, symObjAddr: 0x0, symBinAddr: 0x100007CBC, symSize: 0x24 }
  - { offsetInCU: 0x9AA0, offset: 0x1C3B3, size: 0x8, addend: 0x0, symName: __Z11printHeaderNSt3__112basic_stringIcNS_11char_traitsIcEENS_9allocatorIcEEEE, symObjAddr: 0x6C, symBinAddr: 0x100007D28, symSize: 0x84 }
  - { offsetInCU: 0x9AD8, offset: 0x1C3EB, size: 0x8, addend: 0x0, symName: __ZNKSt3__112basic_stringIcNS_11char_traitsIcEENS_9allocatorIcEEE6lengthB7v160006Ev, symObjAddr: 0xF0, symBinAddr: 0x100007DAC, symSize: 0x24 }
  - { offsetInCU: 0x9AFD, offset: 0x1C410, size: 0x8, addend: 0x0, symName: __ZNSt3__113basic_ostreamIcNS_11char_traitsIcEEElsB7v160006EPFRS3_S4_E, symObjAddr: 0x1CC, symBinAddr: 0x100007E88, symSize: 0x2C }
  - { offsetInCU: 0x9B30, offset: 0x1C443, size: 0x8, addend: 0x0, symName: __Z10printRInfoimNSt3__112basic_stringIcNS_11char_traitsIcEENS_9allocatorIcEEEE, symObjAddr: 0x250, symBinAddr: 0x100007F0C, symSize: 0x1F4 }
  - { offsetInCU: 0x9B76, offset: 0x1C489, size: 0x8, addend: 0x0, symName: __ZNSt3__113basic_ostreamIcNS_11char_traitsIcEEElsB7v160006EPFRNS_8ios_baseES5_E, symObjAddr: 0x444, symBinAddr: 0x100008100, symSize: 0x40 }
  - { offsetInCU: 0x9BAE, offset: 0x1C4C1, size: 0x8, addend: 0x0, symName: _main, symObjAddr: 0x558, symBinAddr: 0x1000081E0, symSize: 0xF98 }
  - { offsetInCU: 0x9C6A, offset: 0x1C57D, size: 0x8, addend: 0x0, symName: __ZNSt3__16vectorIN4sdds7OpFlagsENS_9allocatorIS2_EEE9push_backB7v160006EOS2_, symObjAddr: 0x1588, symBinAddr: 0x1000091AC, symSize: 0x6C }
  - { offsetInCU: 0x9C9F, offset: 0x1C5B2, size: 0x8, addend: 0x0, symName: __ZNSt3__18__iom_t6C1B7v160006Ei, symObjAddr: 0x15F4, symBinAddr: 0x100009218, symSize: 0x34 }
  - { offsetInCU: 0x9CD5, offset: 0x1C5E8, size: 0x8, addend: 0x0, symName: __ZNSt3__18__iom_t6C2B7v160006Ei, symObjAddr: 0x1628, symBinAddr: 0x10000924C, symSize: 0x20 }
  - { offsetInCU: 0x9D0C, offset: 0x1C61F, size: 0x8, addend: 0x0, symName: __ZNSt3__18ios_base4setfB7v160006Ejj, symObjAddr: 0x1648, symBinAddr: 0x10000926C, symSize: 0x5C }
  - { offsetInCU: 0x9D5F, offset: 0x1C672, size: 0x8, addend: 0x0, symName: __ZNSt3__18ios_base6unsetfB7v160006Ej, symObjAddr: 0x16A4, symBinAddr: 0x1000092C8, symSize: 0x28 }
  - { offsetInCU: 0x9DB3, offset: 0x1C6C6, size: 0x8, addend: 0x0, symName: __ZNKSt3__113basic_ostreamIcNS_11char_traitsIcEEE6sentrycvbB7v160006Ev, symObjAddr: 0x1A78, symBinAddr: 0x1000094DC, symSize: 0x1C }
  - { offsetInCU: 0x9DD8, offset: 0x1C6EB, size: 0x8, addend: 0x0, symName: __ZNSt3__119ostreambuf_iteratorIcNS_11char_traitsIcEEEC1B7v160006ERNS_13basic_ostreamIcS2_EE, symObjAddr: 0x1CD4, symBinAddr: 0x100009738, symSize: 0x34 }
  - { offsetInCU: 0x9E0E, offset: 0x1C721, size: 0x8, addend: 0x0, symName: __ZNKSt3__18ios_base5flagsB7v160006Ev, symObjAddr: 0x1D08, symBinAddr: 0x10000976C, symSize: 0x18 }
  - { offsetInCU: 0x9E35, offset: 0x1C748, size: 0x8, addend: 0x0, symName: __ZNKSt3__19basic_iosIcNS_11char_traitsIcEEE4fillB7v160006Ev, symObjAddr: 0x1D20, symBinAddr: 0x100009784, symSize: 0x64 }
  - { offsetInCU: 0x9E5B, offset: 0x1C76E, size: 0x8, addend: 0x0, symName: __ZNKSt3__119ostreambuf_iteratorIcNS_11char_traitsIcEEE6failedB7v160006Ev, symObjAddr: 0x1D84, symBinAddr: 0x1000097E8, symSize: 0x24 }
  - { offsetInCU: 0x9E80, offset: 0x1C793, size: 0x8, addend: 0x0, symName: __ZNSt3__19basic_iosIcNS_11char_traitsIcEEE8setstateB7v160006Ej, symObjAddr: 0x1DA8, symBinAddr: 0x10000980C, symSize: 0x2C }
  - { offsetInCU: 0x9EB4, offset: 0x1C7C7, size: 0x8, addend: 0x0, symName: __ZNKSt3__18ios_base5widthB7v160006Ev, symObjAddr: 0x1DD4, symBinAddr: 0x100009838, symSize: 0x18 }
  - { offsetInCU: 0x9EDB, offset: 0x1C7EE, size: 0x8, addend: 0x0, symName: __ZNSt3__115basic_streambufIcNS_11char_traitsIcEEE5sputnB7v160006EPKcl, symObjAddr: 0x1DEC, symBinAddr: 0x100009850, symSize: 0x3C }
  - { offsetInCU: 0x9F1C, offset: 0x1C82F, size: 0x8, addend: 0x0, symName: __ZNSt3__112basic_stringIcNS_11char_traitsIcEENS_9allocatorIcEEEC1B7v160006Emc, symObjAddr: 0x1E28, symBinAddr: 0x10000988C, symSize: 0x3C }
  - { offsetInCU: 0x9F62, offset: 0x1C875, size: 0x8, addend: 0x0, symName: __ZNSt3__112basic_stringIcNS_11char_traitsIcEENS_9allocatorIcEEE4dataB7v160006Ev, symObjAddr: 0x1E64, symBinAddr: 0x1000098C8, symSize: 0x28 }
  - { offsetInCU: 0x9F87, offset: 0x1C89A, size: 0x8, addend: 0x0, symName: __ZNSt3__18ios_base5widthB7v160006El, symObjAddr: 0x1E8C, symBinAddr: 0x1000098F0, symSize: 0x2C }
  - { offsetInCU: 0x9FCC, offset: 0x1C8DF, size: 0x8, addend: 0x0, symName: __ZNSt3__112basic_stringIcNS_11char_traitsIcEENS_9allocatorIcEEEC2B7v160006Emc, symObjAddr: 0x1EB8, symBinAddr: 0x10000991C, symSize: 0x54 }
  - { offsetInCU: 0xA012, offset: 0x1C925, size: 0x8, addend: 0x0, symName: __ZNSt3__119ostreambuf_iteratorIcNS_11char_traitsIcEEEC2B7v160006ERNS_13basic_ostreamIcS2_EE, symObjAddr: 0x2080, symBinAddr: 0x100009970, symSize: 0x54 }
  - { offsetInCU: 0xA048, offset: 0x1C95B, size: 0x8, addend: 0x0, symName: __ZNKSt3__19basic_iosIcNS_11char_traitsIcEEE5rdbufB7v160006Ev, symObjAddr: 0x20D4, symBinAddr: 0x1000099C4, symSize: 0x24 }
  - { offsetInCU: 0xA06E, offset: 0x1C981, size: 0x8, addend: 0x0, symName: __ZNKSt3__18ios_base5rdbufB7v160006Ev, symObjAddr: 0x20F8, symBinAddr: 0x1000099E8, symSize: 0x18 }
  - { offsetInCU: 0xA093, offset: 0x1C9A6, size: 0x8, addend: 0x0, symName: __ZNSt3__111char_traitsIcE11eq_int_typeEii, symObjAddr: 0x2110, symBinAddr: 0x100009A00, symSize: 0x28 }
  - { offsetInCU: 0xA0C4, offset: 0x1C9D7, size: 0x8, addend: 0x0, symName: __ZNSt3__111char_traitsIcE3eofEv, symObjAddr: 0x2138, symBinAddr: 0x100009A28, symSize: 0x8 }
  - { offsetInCU: 0xA0D8, offset: 0x1C9EB, size: 0x8, addend: 0x0, symName: __ZNKSt3__19basic_iosIcNS_11char_traitsIcEEE5widenB7v160006Ec, symObjAddr: 0x2140, symBinAddr: 0x100009A30, symSize: 0x84 }
  - { offsetInCU: 0xA144, offset: 0x1CA57, size: 0x8, addend: 0x0, symName: __ZNKSt3__15ctypeIcE5widenB7v160006Ec, symObjAddr: 0x21F0, symBinAddr: 0x100009AE0, symSize: 0x38 }
  - { offsetInCU: 0xA178, offset: 0x1CA8B, size: 0x8, addend: 0x0, symName: __ZNSt3__18ios_base8setstateB7v160006Ej, symObjAddr: 0x2228, symBinAddr: 0x100009B18, symSize: 0x34 }
  - { offsetInCU: 0xA1AD, offset: 0x1CAC0, size: 0x8, addend: 0x0, symName: __ZNSt3__112basic_stringIcNS_11char_traitsIcEENS_9allocatorIcEEEC1B7v160006EOS5_, symObjAddr: 0x2400, symBinAddr: 0x100009B4C, symSize: 0x34 }
  - { offsetInCU: 0xA1E4, offset: 0x1CAF7, size: 0x8, addend: 0x0, symName: __ZNSt3__112basic_stringIcNS_11char_traitsIcEENS_9allocatorIcEEEC2B7v160006EOS5_, symObjAddr: 0x2434, symBinAddr: 0x100009B80, symSize: 0x84 }
  - { offsetInCU: 0xA220, offset: 0x1CB33, size: 0x8, addend: 0x0, symName: __ZNSt3__16vectorIN4sdds7OpFlagsENS_9allocatorIS2_EEE9__end_capB7v160006Ev, symObjAddr: 0x2C88, symBinAddr: 0x100009C18, symSize: 0x28 }
  - { offsetInCU: 0xA24A, offset: 0x1CB5D, size: 0x8, addend: 0x0, symName: __ZNSt3__16vectorIN4sdds7OpFlagsENS_9allocatorIS2_EEE22__construct_one_at_endB7v160006IJS2_EEEvDpOT_, symObjAddr: 0x2CB0, symBinAddr: 0x100009C40, symSize: 0x90 }
  - { offsetInCU: 0xA298, offset: 0x1CBAB, size: 0x8, addend: 0x0, symName: __ZNSt3__16vectorIN4sdds7OpFlagsENS_9allocatorIS2_EEE21__push_back_slow_pathIS2_EEvOT_, symObjAddr: 0x2D40, symBinAddr: 0x100009CD0, symSize: 0xD8 }
  - { offsetInCU: 0xA2F4, offset: 0x1CC07, size: 0x8, addend: 0x0, symName: __ZNSt3__117__compressed_pairIPN4sdds7OpFlagsENS_9allocatorIS2_EEE5firstB7v160006Ev, symObjAddr: 0x2E18, symBinAddr: 0x100009DA8, symSize: 0x24 }
  - { offsetInCU: 0xA319, offset: 0x1CC2C, size: 0x8, addend: 0x0, symName: __ZNSt3__122__compressed_pair_elemIPN4sdds7OpFlagsELi0ELb0EE5__getB7v160006Ev, symObjAddr: 0x2E3C, symBinAddr: 0x100009DCC, symSize: 0x14 }
  - { offsetInCU: 0xA357, offset: 0x1CC6A, size: 0x8, addend: 0x0, symName: __ZNSt3__16vectorIN4sdds7OpFlagsENS_9allocatorIS2_EEE21_ConstructTransactionC1B7v160006ERS5_m, symObjAddr: 0x2E50, symBinAddr: 0x100009DE0, symSize: 0x3C }
  - { offsetInCU: 0xA39D, offset: 0x1CCB0, size: 0x8, addend: 0x0, symName: __ZNSt3__116allocator_traitsINS_9allocatorIN4sdds7OpFlagsEEEE9constructB7v160006IS3_JS3_EvEEvRS4_PT_DpOT0_, symObjAddr: 0x2E8C, symBinAddr: 0x100009E1C, symSize: 0x34 }
  - { offsetInCU: 0xA3F4, offset: 0x1CD07, size: 0x8, addend: 0x0, symName: __ZNSt3__16vectorIN4sdds7OpFlagsENS_9allocatorIS2_EEE21_ConstructTransactionD1B7v160006Ev, symObjAddr: 0x2EC0, symBinAddr: 0x100009E50, symSize: 0x2C }
  - { offsetInCU: 0xA41C, offset: 0x1CD2F, size: 0x8, addend: 0x0, symName: __ZNSt3__16vectorIN4sdds7OpFlagsENS_9allocatorIS2_EEE21_ConstructTransactionC2B7v160006ERS5_m, symObjAddr: 0x2EEC, symBinAddr: 0x100009E7C, symSize: 0x44 }
  - { offsetInCU: 0xA463, offset: 0x1CD76, size: 0x8, addend: 0x0, symName: __ZNSt3__19allocatorIN4sdds7OpFlagsEE9constructB7v160006IS2_JS2_EEEvPT_DpOT0_, symObjAddr: 0x2F30, symBinAddr: 0x100009EC0, symSize: 0x28 }
  - { offsetInCU: 0xA4B8, offset: 0x1CDCB, size: 0x8, addend: 0x0, symName: __ZNSt3__16vectorIN4sdds7OpFlagsENS_9allocatorIS2_EEE21_ConstructTransactionD2B7v160006Ev, symObjAddr: 0x2F58, symBinAddr: 0x100009EE8, symSize: 0x20 }
  - { offsetInCU: 0xA4E1, offset: 0x1CDF4, size: 0x8, addend: 0x0, symName: __ZNKSt3__16vectorIN4sdds7OpFlagsENS_9allocatorIS2_EEE11__recommendB7v160006Em, symObjAddr: 0x2F78, symBinAddr: 0x100009F08, symSize: 0xB4 }
  - { offsetInCU: 0xA534, offset: 0x1CE47, size: 0x8, addend: 0x0, symName: __ZNSt3__114__split_bufferIN4sdds7OpFlagsERNS_9allocatorIS2_EEEC1EmmS5_, symObjAddr: 0x302C, symBinAddr: 0x100009FBC, symSize: 0x44 }
  - { offsetInCU: 0xA589, offset: 0x1CE9C, size: 0x8, addend: 0x0, symName: __ZNSt3__114__split_bufferIN4sdds7OpFlagsERNS_9allocatorIS2_EEED1Ev, symObjAddr: 0x3188, symBinAddr: 0x10000A118, symSize: 0x2C }
  - { offsetInCU: 0xA5B4, offset: 0x1CEC7, size: 0x8, addend: 0x0, symName: __ZNKSt3__16vectorIN4sdds7OpFlagsENS_9allocatorIS2_EEE8max_sizeEv, symObjAddr: 0x31B4, symBinAddr: 0x10000A144, symSize: 0x60 }
  - { offsetInCU: 0xA5DA, offset: 0x1CEED, size: 0x8, addend: 0x0, symName: __ZNKSt3__16vectorIN4sdds7OpFlagsENS_9allocatorIS2_EEE20__throw_length_errorB7v160006Ev, symObjAddr: 0x3214, symBinAddr: 0x10000A1A4, symSize: 0x1C }
  - { offsetInCU: 0xA609, offset: 0x1CF1C, size: 0x8, addend: 0x0, symName: __ZNSt3__116allocator_traitsINS_9allocatorIN4sdds7OpFlagsEEEE8max_sizeB7v160006IS4_vEEmRKS4_, symObjAddr: 0x3288, symBinAddr: 0x10000A1C0, symSize: 0x24 }
  - { offsetInCU: 0xA637, offset: 0x1CF4A, size: 0x8, addend: 0x0, symName: __ZNKSt3__16vectorIN4sdds7OpFlagsENS_9allocatorIS2_EEE7__allocB7v160006Ev, symObjAddr: 0x32AC, symBinAddr: 0x10000A1E4, symSize: 0x28 }
  - { offsetInCU: 0xA65C, offset: 0x1CF6F, size: 0x8, addend: 0x0, symName: __ZNKSt3__19allocatorIN4sdds7OpFlagsEE8max_sizeB7v160006Ev, symObjAddr: 0x3370, symBinAddr: 0x10000A20C, symSize: 0x14 }
  - { offsetInCU: 0xA681, offset: 0x1CF94, size: 0x8, addend: 0x0, symName: __ZNKSt3__117__compressed_pairIPN4sdds7OpFlagsENS_9allocatorIS2_EEE6secondB7v160006Ev, symObjAddr: 0x3384, symBinAddr: 0x10000A220, symSize: 0x24 }
  - { offsetInCU: 0xA6A6, offset: 0x1CFB9, size: 0x8, addend: 0x0, symName: __ZNKSt3__122__compressed_pair_elemINS_9allocatorIN4sdds7OpFlagsEEELi1ELb1EE5__getB7v160006Ev, symObjAddr: 0x33A8, symBinAddr: 0x10000A244, symSize: 0x14 }
  - { offsetInCU: 0xA6CB, offset: 0x1CFDE, size: 0x8, addend: 0x0, symName: __ZNSt3__114__split_bufferIN4sdds7OpFlagsERNS_9allocatorIS2_EEEC2EmmS5_, symObjAddr: 0x34FC, symBinAddr: 0x10000A258, symSize: 0xD4 }
  - { offsetInCU: 0xA73D, offset: 0x1D050, size: 0x8, addend: 0x0, symName: __ZNSt3__117__compressed_pairIPN4sdds7OpFlagsERNS_9allocatorIS2_EEEC1B7v160006IDnS6_EEOT_OT0_, symObjAddr: 0x35D0, symBinAddr: 0x10000A32C, symSize: 0x3C }
  - { offsetInCU: 0xA793, offset: 0x1D0A6, size: 0x8, addend: 0x0, symName: __ZNSt3__114__split_bufferIN4sdds7OpFlagsERNS_9allocatorIS2_EEE7__allocB7v160006Ev, symObjAddr: 0x364C, symBinAddr: 0x10000A3A8, symSize: 0x28 }
  - { offsetInCU: 0xA7B8, offset: 0x1D0CB, size: 0x8, addend: 0x0, symName: __ZNSt3__114__split_bufferIN4sdds7OpFlagsERNS_9allocatorIS2_EEE9__end_capB7v160006Ev, symObjAddr: 0x3674, symBinAddr: 0x10000A3D0, symSize: 0x28 }
  - { offsetInCU: 0xA7DD, offset: 0x1D0F0, size: 0x8, addend: 0x0, symName: __ZNSt3__117__compressed_pairIPN4sdds7OpFlagsERNS_9allocatorIS2_EEEC2B7v160006IDnS6_EEOT_OT0_, symObjAddr: 0x369C, symBinAddr: 0x10000A3F8, symSize: 0x48 }
  - { offsetInCU: 0xA833, offset: 0x1D146, size: 0x8, addend: 0x0, symName: __ZNSt3__122__compressed_pair_elemIRNS_9allocatorIN4sdds7OpFlagsEEELi1ELb0EEC2B7v160006IS5_vEEOT_, symObjAddr: 0x36E4, symBinAddr: 0x10000A440, symSize: 0x20 }
  - { offsetInCU: 0xA874, offset: 0x1D187, size: 0x8, addend: 0x0, symName: __ZNSt3__19allocatorIN4sdds7OpFlagsEE8allocateB7v160006Em, symObjAddr: 0x3704, symBinAddr: 0x10000A460, symSize: 0x58 }
  - { offsetInCU: 0xA8A7, offset: 0x1D1BA, size: 0x8, addend: 0x0, symName: __ZNSt3__117__compressed_pairIPN4sdds7OpFlagsERNS_9allocatorIS2_EEE6secondB7v160006Ev, symObjAddr: 0x3840, symBinAddr: 0x10000A4B8, symSize: 0x28 }
  - { offsetInCU: 0xA8CC, offset: 0x1D1DF, size: 0x8, addend: 0x0, symName: __ZNSt3__122__compressed_pair_elemIRNS_9allocatorIN4sdds7OpFlagsEEELi1ELb0EE5__getB7v160006Ev, symObjAddr: 0x3868, symBinAddr: 0x10000A4E0, symSize: 0x18 }
  - { offsetInCU: 0xA8F1, offset: 0x1D204, size: 0x8, addend: 0x0, symName: __ZNSt3__117__compressed_pairIPN4sdds7OpFlagsERNS_9allocatorIS2_EEE5firstB7v160006Ev, symObjAddr: 0x3880, symBinAddr: 0x10000A4F8, symSize: 0x24 }
  - { offsetInCU: 0xA916, offset: 0x1D229, size: 0x8, addend: 0x0, symName: __ZNSt3__116reverse_iteratorIPN4sdds7OpFlagsEEC1B7v160006ES3_, symObjAddr: 0x391C, symBinAddr: 0x10000A594, symSize: 0x34 }
  - { offsetInCU: 0xA94C, offset: 0x1D25F, size: 0x8, addend: 0x0, symName: __ZNKSt3__116reverse_iteratorIPN4sdds7OpFlagsEE4baseB7v160006Ev, symObjAddr: 0x3950, symBinAddr: 0x10000A5C8, symSize: 0x18 }
  - { offsetInCU: 0xA971, offset: 0x1D284, size: 0x8, addend: 0x0, symName: __ZNKSt3__16vectorIN4sdds7OpFlagsENS_9allocatorIS2_EEE14__annotate_newB7v160006Em, symObjAddr: 0x39A4, symBinAddr: 0x10000A61C, symSize: 0xAC }
  - { offsetInCU: 0xA9C8, offset: 0x1D2DB, size: 0x8, addend: 0x0, symName: __ZNKSt3__111__move_loopINS_17_ClassicAlgPolicyEEclB7v160006INS_16reverse_iteratorIPN4sdds7OpFlagsEEES8_S8_EENS_4pairIT_T1_EESA_T0_SB_, symObjAddr: 0x3D50, symBinAddr: 0x10000A9C8, symSize: 0xA0 }
  - { offsetInCU: 0xAA32, offset: 0x1D345, size: 0x8, addend: 0x0, symName: __ZNSt3__18_IterOpsINS_17_ClassicAlgPolicyEE11__iter_moveB7v160006IRNS_16reverse_iteratorIPN4sdds7OpFlagsEEEEENS_9enable_ifIXsr12is_referenceIDTdeclsr3stdE7declvalIRT_EEEEE5valueEDTclsr3stdE4movedeclsr3stdE7declvalISC_EEEEE4typeEOSB_, symObjAddr: 0x3F84, symBinAddr: 0x10000ABFC, symSize: 0x28 }
  - { offsetInCU: 0xAA5E, offset: 0x1D371, size: 0x8, addend: 0x0, symName: __ZNKSt3__116reverse_iteratorIPN4sdds7OpFlagsEEdeB7v160006Ev, symObjAddr: 0x3FAC, symBinAddr: 0x10000AC24, symSize: 0x28 }
  - { offsetInCU: 0xAA91, offset: 0x1D3A4, size: 0x8, addend: 0x0, symName: __ZNSt3__116reverse_iteratorIPN4sdds7OpFlagsEEppB7v160006Ev, symObjAddr: 0x3FD4, symBinAddr: 0x10000AC4C, symSize: 0x20 }
  - { offsetInCU: 0xAAB6, offset: 0x1D3C9, size: 0x8, addend: 0x0, symName: __ZNSt3__18_IterOpsINS_17_ClassicAlgPolicyEE25__validate_iter_referenceB7v160006IRNS_16reverse_iteratorIPN4sdds7OpFlagsEEEEEvv, symObjAddr: 0x3FF4, symBinAddr: 0x10000AC6C, symSize: 0x4 }
  - { offsetInCU: 0xAAD4, offset: 0x1D3E7, size: 0x8, addend: 0x0, symName: __ZNSt3__118__unwrap_iter_implINS_16reverse_iteratorIPN4sdds7OpFlagsEEELb0EE8__unwrapB7v160006ES5_, symObjAddr: 0x3FF8, symBinAddr: 0x10000AC70, symSize: 0x24 }
  - { offsetInCU: 0xAAFC, offset: 0x1D40F, size: 0x8, addend: 0x0, symName: __ZNSt3__14pairINS_16reverse_iteratorIPN4sdds7OpFlagsEEES5_EC1B7v160006IS5_S5_LPv0EEEOT_OT0_, symObjAddr: 0x401C, symBinAddr: 0x10000AC94, symSize: 0x3C }
  - { offsetInCU: 0xAB58, offset: 0x1D46B, size: 0x8, addend: 0x0, symName: __ZNSt3__14pairINS_16reverse_iteratorIPN4sdds7OpFlagsEEES5_EC2B7v160006IS5_S5_LPv0EEEOT_OT0_, symObjAddr: 0x4058, symBinAddr: 0x10000ACD0, symSize: 0x34 }
  - { offsetInCU: 0xABB5, offset: 0x1D4C8, size: 0x8, addend: 0x0, symName: __ZNSt3__118__unwrap_iter_implINS_16reverse_iteratorIPN4sdds7OpFlagsEEELb0EE8__rewrapB7v160006ES5_S5_, symObjAddr: 0x408C, symBinAddr: 0x10000AD04, symSize: 0x2C }
  - { offsetInCU: 0xABE3, offset: 0x1D4F6, size: 0x8, addend: 0x0, symName: __ZNSt3__116reverse_iteratorIPN4sdds7OpFlagsEEC2B7v160006ES3_, symObjAddr: 0x40B8, symBinAddr: 0x10000AD30, symSize: 0x28 }
  - { offsetInCU: 0xAC1A, offset: 0x1D52D, size: 0x8, addend: 0x0, symName: __ZNSt3__114__split_bufferIN4sdds7OpFlagsERNS_9allocatorIS2_EEED2Ev, symObjAddr: 0x40E0, symBinAddr: 0x10000AD58, symSize: 0x8C }
  - { offsetInCU: 0xAC45, offset: 0x1D558, size: 0x8, addend: 0x0, symName: __ZNSt3__114__split_bufferIN4sdds7OpFlagsERNS_9allocatorIS2_EEE5clearB7v160006Ev, symObjAddr: 0x416C, symBinAddr: 0x10000ADE4, symSize: 0x28 }
  - { offsetInCU: 0xAC6A, offset: 0x1D57D, size: 0x8, addend: 0x0, symName: __ZNKSt3__114__split_bufferIN4sdds7OpFlagsERNS_9allocatorIS2_EEE8capacityB7v160006Ev, symObjAddr: 0x4194, symBinAddr: 0x10000AE0C, symSize: 0x40 }
  - { offsetInCU: 0xAC8F, offset: 0x1D5A2, size: 0x8, addend: 0x0, symName: __ZNSt3__114__split_bufferIN4sdds7OpFlagsERNS_9allocatorIS2_EEE17__destruct_at_endB7v160006EPS2_, symObjAddr: 0x41D4, symBinAddr: 0x10000AE4C, symSize: 0x2C }
  - { offsetInCU: 0xACC2, offset: 0x1D5D5, size: 0x8, addend: 0x0, symName: __ZNSt3__114__split_bufferIN4sdds7OpFlagsERNS_9allocatorIS2_EEE17__destruct_at_endB7v160006EPS2_NS_17integral_constantIbLb0EEE, symObjAddr: 0x4200, symBinAddr: 0x10000AE78, symSize: 0x80 }
  - { offsetInCU: 0xAD01, offset: 0x1D614, size: 0x8, addend: 0x0, symName: __ZNKSt3__114__split_bufferIN4sdds7OpFlagsERNS_9allocatorIS2_EEE9__end_capB7v160006Ev, symObjAddr: 0x4280, symBinAddr: 0x10000AEF8, symSize: 0x28 }
  - { offsetInCU: 0xAD26, offset: 0x1D639, size: 0x8, addend: 0x0, symName: __ZNKSt3__117__compressed_pairIPN4sdds7OpFlagsERNS_9allocatorIS2_EEE5firstB7v160006Ev, symObjAddr: 0x42A8, symBinAddr: 0x10000AF20, symSize: 0x24 }
...
